

Microchip MPLAB XC8 Assembler V3.00 build 20241204225717 
                                                                                               Tue Mar 18 23:09:58 2025

Microchip MPLAB XC8 C Compiler v3.00 (Free license) build 20241204225717 Og1 
     1                           	processor	16F877A
     2                           	pagewidth 120
     3                           	opt	flic
     4                           	psect	idataBANK0,global,class=CODE,space=0,delta=2,noexec
     5                           	psect	idataBANK1,global,class=CODE,space=0,delta=2,noexec
     6                           	psect	strings,global,class=STRING,space=0,delta=2,noexec
     7                           	psect	stringtext,global,reloc=256,class=STRCODE,space=0,delta=2,noexec
     8                           	psect	cinit,global,class=CODE,space=0,merge=1,delta=2
     9                           	psect	bssCOMMON,global,class=COMMON,space=1,delta=1,noexec
    10                           	psect	bssBANK0,global,class=BANK0,space=1,delta=1,noexec
    11                           	psect	dataBANK0,global,class=BANK0,space=1,delta=1,noexec
    12                           	psect	bssBANK1,global,class=BANK1,space=1,delta=1,noexec
    13                           	psect	dataBANK1,global,class=BANK1,space=1,delta=1,noexec
    14                           	psect	inittext,global,class=CODE,space=0,delta=2
    15                           	psect	clrtext,global,class=CODE,space=0,delta=2
    16                           	psect	cstackBANK3,global,class=BANK3,space=1,delta=1,noexec
    17                           	psect	cstackCOMMON,global,class=COMMON,space=1,delta=1,noexec
    18                           	psect	cstackBANK0,global,class=BANK0,space=1,delta=1,noexec
    19                           	psect	maintext,global,class=CODE,space=0,split=1,delta=2
    20                           	psect	text1,local,class=CODE,space=0,merge=1,delta=2
    21                           	psect	text2,local,class=CODE,space=0,merge=1,delta=2,group=2
    22                           	psect	text3,local,class=CODE,space=0,merge=1,delta=2
    23                           	psect	text4,local,class=CODE,space=0,merge=1,delta=2
    24                           	psect	text5,local,class=CODE,space=0,merge=1,delta=2
    25                           	psect	text6,local,class=CODE,space=0,merge=1,delta=2
    26                           	psect	text7,local,class=CODE,space=0,merge=1,delta=2
    27                           	psect	text8,local,class=CODE,space=0,merge=1,delta=2
    28                           	psect	text9,local,class=CODE,space=0,merge=1,delta=2
    29                           	psect	text10,local,class=CODE,space=0,merge=1,delta=2
    30                           	psect	text11,local,class=CODE,space=0,merge=1,delta=2
    31                           	psect	text12,local,class=CODE,space=0,merge=1,delta=2
    32                           	psect	text13,local,class=CODE,space=0,merge=1,delta=2,group=1
    33                           	psect	text14,local,class=CODE,space=0,merge=1,delta=2
    34                           	psect	text15,local,class=CODE,space=0,merge=1,delta=2
    35                           	psect	text16,local,class=CODE,space=0,merge=1,delta=2
    36                           	psect	text17,local,class=CODE,space=0,merge=1,delta=2
    37                           	psect	text18,local,class=CODE,space=0,merge=1,delta=2
    38                           	psect	text19,local,class=CODE,space=0,merge=1,delta=2
    39                           	psect	text20,local,class=CODE,space=0,merge=1,delta=2
    40                           	psect	text21,local,class=CODE,space=0,merge=1,delta=2
    41                           	psect	text22,local,class=CODE,space=0,merge=1,delta=2
    42                           	psect	text23,local,class=CODE,space=0,merge=1,delta=2,group=1
    43                           	psect	text24,local,class=CODE,space=0,merge=1,delta=2
    44                           	psect	text25,local,class=CODE,space=0,merge=1,delta=2
    45                           	psect	text26,local,class=CODE,space=0,merge=1,delta=2,group=1
    46                           	psect	text27,local,class=CODE,space=0,merge=1,delta=2,group=1
    47                           	psect	text28,local,class=CODE,space=0,merge=1,delta=2
    48                           	psect	text29,local,class=CODE,space=0,merge=1,delta=2
    49                           	psect	text30,local,class=CODE,space=0,merge=1,delta=2
    50                           	psect	text31,local,class=CODE,space=0,merge=1,delta=2
    51                           	psect	text32,local,class=CODE,space=0,merge=1,delta=2
    52                           	psect	text33,local,class=CODE,space=0,merge=1,delta=2
    53                           	psect	text34,local,class=CODE,space=0,merge=1,delta=2
    54                           	psect	text35,local,class=CODE,space=0,merge=1,delta=2,group=1
    55                           	psect	text36,local,class=CODE,space=0,merge=1,delta=2,group=1
    56                           	psect	text37,local,class=CODE,space=0,merge=1,delta=2,group=1
    57                           	psect	text38,local,class=CODE,space=0,merge=1,delta=2
    58                           	psect	text39,local,class=CODE,space=0,merge=1,delta=2,group=2
    59                           	psect	text40,local,class=CODE,space=0,merge=1,delta=2,group=2
    60                           	psect	text41,local,class=CODE,space=0,merge=1,delta=2
    61                           	psect	text42,local,class=CODE,space=0,merge=1,delta=2
    62                           	psect	text43,local,class=CODE,space=0,merge=1,delta=2
    63                           	psect	text44,local,class=CODE,space=0,merge=1,delta=2
    64                           	psect	text45,local,class=CODE,space=0,merge=1,delta=2
    65                           	psect	text46,local,class=CODE,space=0,merge=1,delta=2
    66                           	psect	text47,local,class=CODE,space=0,merge=1,delta=2
    67                           	psect	text48,local,class=CODE,space=0,merge=1,delta=2
    68                           	psect	text49,local,class=CODE,space=0,merge=1,delta=2
    69                           	psect	text50,local,class=CODE,space=0,merge=1,delta=2
    70                           	psect	text51,local,class=CODE,space=0,merge=1,delta=2
    71                           	psect	intentry,global,class=CODE,space=0,delta=2
    72                           	psect	config,global,abs,ovrld,class=CONFIG,space=4,delta=2,noexec
    73                           	dabs	1,0x7E,2
    74     0000                     
    75                           ; Version 2.20
    76                           ; Generated 12/02/2020 GMT
    77                           ; 
    78                           ; Copyright © 2020, Microchip Technology Inc. and its subsidiaries ("Microchip")
    79                           ; All rights reserved.
    80                           ; 
    81                           ; This software is developed by Microchip Technology Inc. and its subsidiaries ("Microch
      +                          ip").
    82                           ; 
    83                           ; Redistribution and use in source and binary forms, with or without modification, are
    84                           ; permitted provided that the following conditions are met:
    85                           ; 
    86                           ;     1. Redistributions of source code must retain the above copyright notice, this lis
      +                          t of
    87                           ;        conditions and the following disclaimer.
    88                           ; 
    89                           ;     2. Redistributions in binary form must reproduce the above copyright notice, this 
      +                          list
    90                           ;        of conditions and the following disclaimer in the documentation and/or other
    91                           ;        materials provided with the distribution.
    92                           ; 
    93                           ;     3. Microchip's name may not be used to endorse or promote products derived from th
      +                          is
    94                           ;        software without specific prior written permission.
    95                           ; 
    96                           ; THIS SOFTWARE IS PROVIDED BY MICROCHIP "AS IS" AND ANY EXPRESS OR IMPLIED WARRANTIES,
    97                           ; INCLUDING, BUT NOT LIMITED TO, THE IMPLIED WARRANTIES OF MERCHANTABILITY AND FITNESS F
      +                          OR
    98                           ; PURPOSE ARE DISCLAIMED.  IN NO EVENT SHALL MICROCHIP BE LIABLE FOR ANY DIRECT, INDIREC
      +                          T,
    99                           ; INCIDENTAL, SPECIAL, EXEMPLARY, OR CONSEQUENTIAL DAMAGES (INCLUDING BUT NOT LIMITED TO
   100                           ; PROCUREMENT OF SUBSTITUTE GOODS OR SERVICES; LOSS OF USE, DATA OR PROFITS; OR BUSINESS
   101                           ; INTERRUPTION) HOWSOEVER CAUSED AND ON ANY THEORY OF LIABILITY, WHETHER IN CONTRACT, ST
      +                          RICT
   102                           ; LIABILITY, OR TORT (INCLUDING NEGLIGENCE OR OTHERWISE) ARISING IN ANY WAY OUT OF THE U
      +                          SE OF
   103                           ; THIS SOFTWARE, EVEN IF ADVISED OF THE POSSIBILITY OF SUCH DAMAGE.
   104                           ; 
   105                           ; 
   106                           ; Code-generator required, PIC16F877A Definitions
   107                           ; 
   108                           ; SFR Addresses
   109     0004                     fsr             equ	4
   110     0004                     fsr0            equ	4
   111     0000                     indf            equ	0
   112     0000                     indf0           equ	0
   113     0002                     pc              equ	2
   114     0002                     pcl             equ	2
   115     000A                     pclath          equ	10
   116     0003                     status          equ	3
   117     0000                     INDF            equ	0	;# 
   118     0001                     TMR0            equ	1	;# 
   119     0002                     PCL             equ	2	;# 
   120     0003                     STATUS          equ	3	;# 
   121     0004                     FSR             equ	4	;# 
   122     0005                     PORTA           equ	5	;# 
   123     0006                     PORTB           equ	6	;# 
   124     0007                     PORTC           equ	7	;# 
   125     0008                     PORTD           equ	8	;# 
   126     0009                     PORTE           equ	9	;# 
   127     000A                     PCLATH          equ	10	;# 
   128     000B                     INTCON          equ	11	;# 
   129     000C                     PIR1            equ	12	;# 
   130     000D                     PIR2            equ	13	;# 
   131     000E                     TMR1            equ	14	;# 
   132     000E                     TMR1L           equ	14	;# 
   133     000F                     TMR1H           equ	15	;# 
   134     0010                     T1CON           equ	16	;# 
   135     0011                     TMR2            equ	17	;# 
   136     0012                     T2CON           equ	18	;# 
   137     0013                     SSPBUF          equ	19	;# 
   138     0014                     SSPCON          equ	20	;# 
   139     0015                     CCPR1           equ	21	;# 
   140     0015                     CCPR1L          equ	21	;# 
   141     0016                     CCPR1H          equ	22	;# 
   142     0017                     CCP1CON         equ	23	;# 
   143     0018                     RCSTA           equ	24	;# 
   144     0019                     TXREG           equ	25	;# 
   145     001A                     RCREG           equ	26	;# 
   146     001B                     CCPR2           equ	27	;# 
   147     001B                     CCPR2L          equ	27	;# 
   148     001C                     CCPR2H          equ	28	;# 
   149     001D                     CCP2CON         equ	29	;# 
   150     001E                     ADRESH          equ	30	;# 
   151     001F                     ADCON0          equ	31	;# 
   152     0081                     OPTION_REG      equ	129	;# 
   153     0085                     TRISA           equ	133	;# 
   154     0086                     TRISB           equ	134	;# 
   155     0087                     TRISC           equ	135	;# 
   156     0088                     TRISD           equ	136	;# 
   157     0089                     TRISE           equ	137	;# 
   158     008C                     PIE1            equ	140	;# 
   159     008D                     PIE2            equ	141	;# 
   160     008E                     PCON            equ	142	;# 
   161     0091                     SSPCON2         equ	145	;# 
   162     0092                     PR2             equ	146	;# 
   163     0093                     SSPADD          equ	147	;# 
   164     0094                     SSPSTAT         equ	148	;# 
   165     0098                     TXSTA           equ	152	;# 
   166     0099                     SPBRG           equ	153	;# 
   167     009C                     CMCON           equ	156	;# 
   168     009D                     CVRCON          equ	157	;# 
   169     009E                     ADRESL          equ	158	;# 
   170     009F                     ADCON1          equ	159	;# 
   171     010C                     EEDATA          equ	268	;# 
   172     010D                     EEADR           equ	269	;# 
   173     010E                     EEDATH          equ	270	;# 
   174     010F                     EEADRH          equ	271	;# 
   175     018C                     EECON1          equ	396	;# 
   176     018D                     EECON2          equ	397	;# 
   177     0000                     INDF            equ	0	;# 
   178     0001                     TMR0            equ	1	;# 
   179     0002                     PCL             equ	2	;# 
   180     0003                     STATUS          equ	3	;# 
   181     0004                     FSR             equ	4	;# 
   182     0005                     PORTA           equ	5	;# 
   183     0006                     PORTB           equ	6	;# 
   184     0007                     PORTC           equ	7	;# 
   185     0008                     PORTD           equ	8	;# 
   186     0009                     PORTE           equ	9	;# 
   187     000A                     PCLATH          equ	10	;# 
   188     000B                     INTCON          equ	11	;# 
   189     000C                     PIR1            equ	12	;# 
   190     000D                     PIR2            equ	13	;# 
   191     000E                     TMR1            equ	14	;# 
   192     000E                     TMR1L           equ	14	;# 
   193     000F                     TMR1H           equ	15	;# 
   194     0010                     T1CON           equ	16	;# 
   195     0011                     TMR2            equ	17	;# 
   196     0012                     T2CON           equ	18	;# 
   197     0013                     SSPBUF          equ	19	;# 
   198     0014                     SSPCON          equ	20	;# 
   199     0015                     CCPR1           equ	21	;# 
   200     0015                     CCPR1L          equ	21	;# 
   201     0016                     CCPR1H          equ	22	;# 
   202     0017                     CCP1CON         equ	23	;# 
   203     0018                     RCSTA           equ	24	;# 
   204     0019                     TXREG           equ	25	;# 
   205     001A                     RCREG           equ	26	;# 
   206     001B                     CCPR2           equ	27	;# 
   207     001B                     CCPR2L          equ	27	;# 
   208     001C                     CCPR2H          equ	28	;# 
   209     001D                     CCP2CON         equ	29	;# 
   210     001E                     ADRESH          equ	30	;# 
   211     001F                     ADCON0          equ	31	;# 
   212     0081                     OPTION_REG      equ	129	;# 
   213     0085                     TRISA           equ	133	;# 
   214     0086                     TRISB           equ	134	;# 
   215     0087                     TRISC           equ	135	;# 
   216     0088                     TRISD           equ	136	;# 
   217     0089                     TRISE           equ	137	;# 
   218     008C                     PIE1            equ	140	;# 
   219     008D                     PIE2            equ	141	;# 
   220     008E                     PCON            equ	142	;# 
   221     0091                     SSPCON2         equ	145	;# 
   222     0092                     PR2             equ	146	;# 
   223     0093                     SSPADD          equ	147	;# 
   224     0094                     SSPSTAT         equ	148	;# 
   225     0098                     TXSTA           equ	152	;# 
   226     0099                     SPBRG           equ	153	;# 
   227     009C                     CMCON           equ	156	;# 
   228     009D                     CVRCON          equ	157	;# 
   229     009E                     ADRESL          equ	158	;# 
   230     009F                     ADCON1          equ	159	;# 
   231     010C                     EEDATA          equ	268	;# 
   232     010D                     EEADR           equ	269	;# 
   233     010E                     EEDATH          equ	270	;# 
   234     010F                     EEADRH          equ	271	;# 
   235     018C                     EECON1          equ	396	;# 
   236     018D                     EECON2          equ	397	;# 
   237     0000                     INDF            equ	0	;# 
   238     0001                     TMR0            equ	1	;# 
   239     0002                     PCL             equ	2	;# 
   240     0003                     STATUS          equ	3	;# 
   241     0004                     FSR             equ	4	;# 
   242     0005                     PORTA           equ	5	;# 
   243     0006                     PORTB           equ	6	;# 
   244     0007                     PORTC           equ	7	;# 
   245     0008                     PORTD           equ	8	;# 
   246     0009                     PORTE           equ	9	;# 
   247     000A                     PCLATH          equ	10	;# 
   248     000B                     INTCON          equ	11	;# 
   249     000C                     PIR1            equ	12	;# 
   250     000D                     PIR2            equ	13	;# 
   251     000E                     TMR1            equ	14	;# 
   252     000E                     TMR1L           equ	14	;# 
   253     000F                     TMR1H           equ	15	;# 
   254     0010                     T1CON           equ	16	;# 
   255     0011                     TMR2            equ	17	;# 
   256     0012                     T2CON           equ	18	;# 
   257     0013                     SSPBUF          equ	19	;# 
   258     0014                     SSPCON          equ	20	;# 
   259     0015                     CCPR1           equ	21	;# 
   260     0015                     CCPR1L          equ	21	;# 
   261     0016                     CCPR1H          equ	22	;# 
   262     0017                     CCP1CON         equ	23	;# 
   263     0018                     RCSTA           equ	24	;# 
   264     0019                     TXREG           equ	25	;# 
   265     001A                     RCREG           equ	26	;# 
   266     001B                     CCPR2           equ	27	;# 
   267     001B                     CCPR2L          equ	27	;# 
   268     001C                     CCPR2H          equ	28	;# 
   269     001D                     CCP2CON         equ	29	;# 
   270     001E                     ADRESH          equ	30	;# 
   271     001F                     ADCON0          equ	31	;# 
   272     0081                     OPTION_REG      equ	129	;# 
   273     0085                     TRISA           equ	133	;# 
   274     0086                     TRISB           equ	134	;# 
   275     0087                     TRISC           equ	135	;# 
   276     0088                     TRISD           equ	136	;# 
   277     0089                     TRISE           equ	137	;# 
   278     008C                     PIE1            equ	140	;# 
   279     008D                     PIE2            equ	141	;# 
   280     008E                     PCON            equ	142	;# 
   281     0091                     SSPCON2         equ	145	;# 
   282     0092                     PR2             equ	146	;# 
   283     0093                     SSPADD          equ	147	;# 
   284     0094                     SSPSTAT         equ	148	;# 
   285     0098                     TXSTA           equ	152	;# 
   286     0099                     SPBRG           equ	153	;# 
   287     009C                     CMCON           equ	156	;# 
   288     009D                     CVRCON          equ	157	;# 
   289     009E                     ADRESL          equ	158	;# 
   290     009F                     ADCON1          equ	159	;# 
   291     010C                     EEDATA          equ	268	;# 
   292     010D                     EEADR           equ	269	;# 
   293     010E                     EEDATH          equ	270	;# 
   294     010F                     EEADRH          equ	271	;# 
   295     018C                     EECON1          equ	396	;# 
   296     018D                     EECON2          equ	397	;# 
   297     0000                     INDF            equ	0	;# 
   298     0001                     TMR0            equ	1	;# 
   299     0002                     PCL             equ	2	;# 
   300     0003                     STATUS          equ	3	;# 
   301     0004                     FSR             equ	4	;# 
   302     0005                     PORTA           equ	5	;# 
   303     0006                     PORTB           equ	6	;# 
   304     0007                     PORTC           equ	7	;# 
   305     0008                     PORTD           equ	8	;# 
   306     0009                     PORTE           equ	9	;# 
   307     000A                     PCLATH          equ	10	;# 
   308     000B                     INTCON          equ	11	;# 
   309     000C                     PIR1            equ	12	;# 
   310     000D                     PIR2            equ	13	;# 
   311     000E                     TMR1            equ	14	;# 
   312     000E                     TMR1L           equ	14	;# 
   313     000F                     TMR1H           equ	15	;# 
   314     0010                     T1CON           equ	16	;# 
   315     0011                     TMR2            equ	17	;# 
   316     0012                     T2CON           equ	18	;# 
   317     0013                     SSPBUF          equ	19	;# 
   318     0014                     SSPCON          equ	20	;# 
   319     0015                     CCPR1           equ	21	;# 
   320     0015                     CCPR1L          equ	21	;# 
   321     0016                     CCPR1H          equ	22	;# 
   322     0017                     CCP1CON         equ	23	;# 
   323     0018                     RCSTA           equ	24	;# 
   324     0019                     TXREG           equ	25	;# 
   325     001A                     RCREG           equ	26	;# 
   326     001B                     CCPR2           equ	27	;# 
   327     001B                     CCPR2L          equ	27	;# 
   328     001C                     CCPR2H          equ	28	;# 
   329     001D                     CCP2CON         equ	29	;# 
   330     001E                     ADRESH          equ	30	;# 
   331     001F                     ADCON0          equ	31	;# 
   332     0081                     OPTION_REG      equ	129	;# 
   333     0085                     TRISA           equ	133	;# 
   334     0086                     TRISB           equ	134	;# 
   335     0087                     TRISC           equ	135	;# 
   336     0088                     TRISD           equ	136	;# 
   337     0089                     TRISE           equ	137	;# 
   338     008C                     PIE1            equ	140	;# 
   339     008D                     PIE2            equ	141	;# 
   340     008E                     PCON            equ	142	;# 
   341     0091                     SSPCON2         equ	145	;# 
   342     0092                     PR2             equ	146	;# 
   343     0093                     SSPADD          equ	147	;# 
   344     0094                     SSPSTAT         equ	148	;# 
   345     0098                     TXSTA           equ	152	;# 
   346     0099                     SPBRG           equ	153	;# 
   347     009C                     CMCON           equ	156	;# 
   348     009D                     CVRCON          equ	157	;# 
   349     009E                     ADRESL          equ	158	;# 
   350     009F                     ADCON1          equ	159	;# 
   351     010C                     EEDATA          equ	268	;# 
   352     010D                     EEADR           equ	269	;# 
   353     010E                     EEDATH          equ	270	;# 
   354     010F                     EEADRH          equ	271	;# 
   355     018C                     EECON1          equ	396	;# 
   356     018D                     EECON2          equ	397	;# 
   357     0000                     INDF            equ	0	;# 
   358     0001                     TMR0            equ	1	;# 
   359     0002                     PCL             equ	2	;# 
   360     0003                     STATUS          equ	3	;# 
   361     0004                     FSR             equ	4	;# 
   362     0005                     PORTA           equ	5	;# 
   363     0006                     PORTB           equ	6	;# 
   364     0007                     PORTC           equ	7	;# 
   365     0008                     PORTD           equ	8	;# 
   366     0009                     PORTE           equ	9	;# 
   367     000A                     PCLATH          equ	10	;# 
   368     000B                     INTCON          equ	11	;# 
   369     000C                     PIR1            equ	12	;# 
   370     000D                     PIR2            equ	13	;# 
   371     000E                     TMR1            equ	14	;# 
   372     000E                     TMR1L           equ	14	;# 
   373     000F                     TMR1H           equ	15	;# 
   374     0010                     T1CON           equ	16	;# 
   375     0011                     TMR2            equ	17	;# 
   376     0012                     T2CON           equ	18	;# 
   377     0013                     SSPBUF          equ	19	;# 
   378     0014                     SSPCON          equ	20	;# 
   379     0015                     CCPR1           equ	21	;# 
   380     0015                     CCPR1L          equ	21	;# 
   381     0016                     CCPR1H          equ	22	;# 
   382     0017                     CCP1CON         equ	23	;# 
   383     0018                     RCSTA           equ	24	;# 
   384     0019                     TXREG           equ	25	;# 
   385     001A                     RCREG           equ	26	;# 
   386     001B                     CCPR2           equ	27	;# 
   387     001B                     CCPR2L          equ	27	;# 
   388     001C                     CCPR2H          equ	28	;# 
   389     001D                     CCP2CON         equ	29	;# 
   390     001E                     ADRESH          equ	30	;# 
   391     001F                     ADCON0          equ	31	;# 
   392     0081                     OPTION_REG      equ	129	;# 
   393     0085                     TRISA           equ	133	;# 
   394     0086                     TRISB           equ	134	;# 
   395     0087                     TRISC           equ	135	;# 
   396     0088                     TRISD           equ	136	;# 
   397     0089                     TRISE           equ	137	;# 
   398     008C                     PIE1            equ	140	;# 
   399     008D                     PIE2            equ	141	;# 
   400     008E                     PCON            equ	142	;# 
   401     0091                     SSPCON2         equ	145	;# 
   402     0092                     PR2             equ	146	;# 
   403     0093                     SSPADD          equ	147	;# 
   404     0094                     SSPSTAT         equ	148	;# 
   405     0098                     TXSTA           equ	152	;# 
   406     0099                     SPBRG           equ	153	;# 
   407     009C                     CMCON           equ	156	;# 
   408     009D                     CVRCON          equ	157	;# 
   409     009E                     ADRESL          equ	158	;# 
   410     009F                     ADCON1          equ	159	;# 
   411     010C                     EEDATA          equ	268	;# 
   412     010D                     EEADR           equ	269	;# 
   413     010E                     EEDATH          equ	270	;# 
   414     010F                     EEADRH          equ	271	;# 
   415     018C                     EECON1          equ	396	;# 
   416     018D                     EECON2          equ	397	;# 
   417     0000                     INDF            equ	0	;# 
   418     0001                     TMR0            equ	1	;# 
   419     0002                     PCL             equ	2	;# 
   420     0003                     STATUS          equ	3	;# 
   421     0004                     FSR             equ	4	;# 
   422     0005                     PORTA           equ	5	;# 
   423     0006                     PORTB           equ	6	;# 
   424     0007                     PORTC           equ	7	;# 
   425     0008                     PORTD           equ	8	;# 
   426     0009                     PORTE           equ	9	;# 
   427     000A                     PCLATH          equ	10	;# 
   428     000B                     INTCON          equ	11	;# 
   429     000C                     PIR1            equ	12	;# 
   430     000D                     PIR2            equ	13	;# 
   431     000E                     TMR1            equ	14	;# 
   432     000E                     TMR1L           equ	14	;# 
   433     000F                     TMR1H           equ	15	;# 
   434     0010                     T1CON           equ	16	;# 
   435     0011                     TMR2            equ	17	;# 
   436     0012                     T2CON           equ	18	;# 
   437     0013                     SSPBUF          equ	19	;# 
   438     0014                     SSPCON          equ	20	;# 
   439     0015                     CCPR1           equ	21	;# 
   440     0015                     CCPR1L          equ	21	;# 
   441     0016                     CCPR1H          equ	22	;# 
   442     0017                     CCP1CON         equ	23	;# 
   443     0018                     RCSTA           equ	24	;# 
   444     0019                     TXREG           equ	25	;# 
   445     001A                     RCREG           equ	26	;# 
   446     001B                     CCPR2           equ	27	;# 
   447     001B                     CCPR2L          equ	27	;# 
   448     001C                     CCPR2H          equ	28	;# 
   449     001D                     CCP2CON         equ	29	;# 
   450     001E                     ADRESH          equ	30	;# 
   451     001F                     ADCON0          equ	31	;# 
   452     0081                     OPTION_REG      equ	129	;# 
   453     0085                     TRISA           equ	133	;# 
   454     0086                     TRISB           equ	134	;# 
   455     0087                     TRISC           equ	135	;# 
   456     0088                     TRISD           equ	136	;# 
   457     0089                     TRISE           equ	137	;# 
   458     008C                     PIE1            equ	140	;# 
   459     008D                     PIE2            equ	141	;# 
   460     008E                     PCON            equ	142	;# 
   461     0091                     SSPCON2         equ	145	;# 
   462     0092                     PR2             equ	146	;# 
   463     0093                     SSPADD          equ	147	;# 
   464     0094                     SSPSTAT         equ	148	;# 
   465     0098                     TXSTA           equ	152	;# 
   466     0099                     SPBRG           equ	153	;# 
   467     009C                     CMCON           equ	156	;# 
   468     009D                     CVRCON          equ	157	;# 
   469     009E                     ADRESL          equ	158	;# 
   470     009F                     ADCON1          equ	159	;# 
   471     010C                     EEDATA          equ	268	;# 
   472     010D                     EEADR           equ	269	;# 
   473     010E                     EEDATH          equ	270	;# 
   474     010F                     EEADRH          equ	271	;# 
   475     018C                     EECON1          equ	396	;# 
   476     018D                     EECON2          equ	397	;# 
   477     0000                     INDF            equ	0	;# 
   478     0001                     TMR0            equ	1	;# 
   479     0002                     PCL             equ	2	;# 
   480     0003                     STATUS          equ	3	;# 
   481     0004                     FSR             equ	4	;# 
   482     0005                     PORTA           equ	5	;# 
   483     0006                     PORTB           equ	6	;# 
   484     0007                     PORTC           equ	7	;# 
   485     0008                     PORTD           equ	8	;# 
   486     0009                     PORTE           equ	9	;# 
   487     000A                     PCLATH          equ	10	;# 
   488     000B                     INTCON          equ	11	;# 
   489     000C                     PIR1            equ	12	;# 
   490     000D                     PIR2            equ	13	;# 
   491     000E                     TMR1            equ	14	;# 
   492     000E                     TMR1L           equ	14	;# 
   493     000F                     TMR1H           equ	15	;# 
   494     0010                     T1CON           equ	16	;# 
   495     0011                     TMR2            equ	17	;# 
   496     0012                     T2CON           equ	18	;# 
   497     0013                     SSPBUF          equ	19	;# 
   498     0014                     SSPCON          equ	20	;# 
   499     0015                     CCPR1           equ	21	;# 
   500     0015                     CCPR1L          equ	21	;# 
   501     0016                     CCPR1H          equ	22	;# 
   502     0017                     CCP1CON         equ	23	;# 
   503     0018                     RCSTA           equ	24	;# 
   504     0019                     TXREG           equ	25	;# 
   505     001A                     RCREG           equ	26	;# 
   506     001B                     CCPR2           equ	27	;# 
   507     001B                     CCPR2L          equ	27	;# 
   508     001C                     CCPR2H          equ	28	;# 
   509     001D                     CCP2CON         equ	29	;# 
   510     001E                     ADRESH          equ	30	;# 
   511     001F                     ADCON0          equ	31	;# 
   512     0081                     OPTION_REG      equ	129	;# 
   513     0085                     TRISA           equ	133	;# 
   514     0086                     TRISB           equ	134	;# 
   515     0087                     TRISC           equ	135	;# 
   516     0088                     TRISD           equ	136	;# 
   517     0089                     TRISE           equ	137	;# 
   518     008C                     PIE1            equ	140	;# 
   519     008D                     PIE2            equ	141	;# 
   520     008E                     PCON            equ	142	;# 
   521     0091                     SSPCON2         equ	145	;# 
   522     0092                     PR2             equ	146	;# 
   523     0093                     SSPADD          equ	147	;# 
   524     0094                     SSPSTAT         equ	148	;# 
   525     0098                     TXSTA           equ	152	;# 
   526     0099                     SPBRG           equ	153	;# 
   527     009C                     CMCON           equ	156	;# 
   528     009D                     CVRCON          equ	157	;# 
   529     009E                     ADRESL          equ	158	;# 
   530     009F                     ADCON1          equ	159	;# 
   531     010C                     EEDATA          equ	268	;# 
   532     010D                     EEADR           equ	269	;# 
   533     010E                     EEDATH          equ	270	;# 
   534     010F                     EEADRH          equ	271	;# 
   535     018C                     EECON1          equ	396	;# 
   536     018D                     EECON2          equ	397	;# 
   537     0000                     INDF            equ	0	;# 
   538     0001                     TMR0            equ	1	;# 
   539     0002                     PCL             equ	2	;# 
   540     0003                     STATUS          equ	3	;# 
   541     0004                     FSR             equ	4	;# 
   542     0005                     PORTA           equ	5	;# 
   543     0006                     PORTB           equ	6	;# 
   544     0007                     PORTC           equ	7	;# 
   545     0008                     PORTD           equ	8	;# 
   546     0009                     PORTE           equ	9	;# 
   547     000A                     PCLATH          equ	10	;# 
   548     000B                     INTCON          equ	11	;# 
   549     000C                     PIR1            equ	12	;# 
   550     000D                     PIR2            equ	13	;# 
   551     000E                     TMR1            equ	14	;# 
   552     000E                     TMR1L           equ	14	;# 
   553     000F                     TMR1H           equ	15	;# 
   554     0010                     T1CON           equ	16	;# 
   555     0011                     TMR2            equ	17	;# 
   556     0012                     T2CON           equ	18	;# 
   557     0013                     SSPBUF          equ	19	;# 
   558     0014                     SSPCON          equ	20	;# 
   559     0015                     CCPR1           equ	21	;# 
   560     0015                     CCPR1L          equ	21	;# 
   561     0016                     CCPR1H          equ	22	;# 
   562     0017                     CCP1CON         equ	23	;# 
   563     0018                     RCSTA           equ	24	;# 
   564     0019                     TXREG           equ	25	;# 
   565     001A                     RCREG           equ	26	;# 
   566     001B                     CCPR2           equ	27	;# 
   567     001B                     CCPR2L          equ	27	;# 
   568     001C                     CCPR2H          equ	28	;# 
   569     001D                     CCP2CON         equ	29	;# 
   570     001E                     ADRESH          equ	30	;# 
   571     001F                     ADCON0          equ	31	;# 
   572     0081                     OPTION_REG      equ	129	;# 
   573     0085                     TRISA           equ	133	;# 
   574     0086                     TRISB           equ	134	;# 
   575     0087                     TRISC           equ	135	;# 
   576     0088                     TRISD           equ	136	;# 
   577     0089                     TRISE           equ	137	;# 
   578     008C                     PIE1            equ	140	;# 
   579     008D                     PIE2            equ	141	;# 
   580     008E                     PCON            equ	142	;# 
   581     0091                     SSPCON2         equ	145	;# 
   582     0092                     PR2             equ	146	;# 
   583     0093                     SSPADD          equ	147	;# 
   584     0094                     SSPSTAT         equ	148	;# 
   585     0098                     TXSTA           equ	152	;# 
   586     0099                     SPBRG           equ	153	;# 
   587     009C                     CMCON           equ	156	;# 
   588     009D                     CVRCON          equ	157	;# 
   589     009E                     ADRESL          equ	158	;# 
   590     009F                     ADCON1          equ	159	;# 
   591     010C                     EEDATA          equ	268	;# 
   592     010D                     EEADR           equ	269	;# 
   593     010E                     EEDATH          equ	270	;# 
   594     010F                     EEADRH          equ	271	;# 
   595     018C                     EECON1          equ	396	;# 
   596     018D                     EECON2          equ	397	;# 
   597     0000                     INDF            equ	0	;# 
   598     0001                     TMR0            equ	1	;# 
   599     0002                     PCL             equ	2	;# 
   600     0003                     STATUS          equ	3	;# 
   601     0004                     FSR             equ	4	;# 
   602     0005                     PORTA           equ	5	;# 
   603     0006                     PORTB           equ	6	;# 
   604     0007                     PORTC           equ	7	;# 
   605     0008                     PORTD           equ	8	;# 
   606     0009                     PORTE           equ	9	;# 
   607     000A                     PCLATH          equ	10	;# 
   608     000B                     INTCON          equ	11	;# 
   609     000C                     PIR1            equ	12	;# 
   610     000D                     PIR2            equ	13	;# 
   611     000E                     TMR1            equ	14	;# 
   612     000E                     TMR1L           equ	14	;# 
   613     000F                     TMR1H           equ	15	;# 
   614     0010                     T1CON           equ	16	;# 
   615     0011                     TMR2            equ	17	;# 
   616     0012                     T2CON           equ	18	;# 
   617     0013                     SSPBUF          equ	19	;# 
   618     0014                     SSPCON          equ	20	;# 
   619     0015                     CCPR1           equ	21	;# 
   620     0015                     CCPR1L          equ	21	;# 
   621     0016                     CCPR1H          equ	22	;# 
   622     0017                     CCP1CON         equ	23	;# 
   623     0018                     RCSTA           equ	24	;# 
   624     0019                     TXREG           equ	25	;# 
   625     001A                     RCREG           equ	26	;# 
   626     001B                     CCPR2           equ	27	;# 
   627     001B                     CCPR2L          equ	27	;# 
   628     001C                     CCPR2H          equ	28	;# 
   629     001D                     CCP2CON         equ	29	;# 
   630     001E                     ADRESH          equ	30	;# 
   631     001F                     ADCON0          equ	31	;# 
   632     0081                     OPTION_REG      equ	129	;# 
   633     0085                     TRISA           equ	133	;# 
   634     0086                     TRISB           equ	134	;# 
   635     0087                     TRISC           equ	135	;# 
   636     0088                     TRISD           equ	136	;# 
   637     0089                     TRISE           equ	137	;# 
   638     008C                     PIE1            equ	140	;# 
   639     008D                     PIE2            equ	141	;# 
   640     008E                     PCON            equ	142	;# 
   641     0091                     SSPCON2         equ	145	;# 
   642     0092                     PR2             equ	146	;# 
   643     0093                     SSPADD          equ	147	;# 
   644     0094                     SSPSTAT         equ	148	;# 
   645     0098                     TXSTA           equ	152	;# 
   646     0099                     SPBRG           equ	153	;# 
   647     009C                     CMCON           equ	156	;# 
   648     009D                     CVRCON          equ	157	;# 
   649     009E                     ADRESL          equ	158	;# 
   650     009F                     ADCON1          equ	159	;# 
   651     010C                     EEDATA          equ	268	;# 
   652     010D                     EEADR           equ	269	;# 
   653     010E                     EEDATH          equ	270	;# 
   654     010F                     EEADRH          equ	271	;# 
   655     018C                     EECON1          equ	396	;# 
   656     018D                     EECON2          equ	397	;# 
   657     0000                     INDF            equ	0	;# 
   658     0001                     TMR0            equ	1	;# 
   659     0002                     PCL             equ	2	;# 
   660     0003                     STATUS          equ	3	;# 
   661     0004                     FSR             equ	4	;# 
   662     0005                     PORTA           equ	5	;# 
   663     0006                     PORTB           equ	6	;# 
   664     0007                     PORTC           equ	7	;# 
   665     0008                     PORTD           equ	8	;# 
   666     0009                     PORTE           equ	9	;# 
   667     000A                     PCLATH          equ	10	;# 
   668     000B                     INTCON          equ	11	;# 
   669     000C                     PIR1            equ	12	;# 
   670     000D                     PIR2            equ	13	;# 
   671     000E                     TMR1            equ	14	;# 
   672     000E                     TMR1L           equ	14	;# 
   673     000F                     TMR1H           equ	15	;# 
   674     0010                     T1CON           equ	16	;# 
   675     0011                     TMR2            equ	17	;# 
   676     0012                     T2CON           equ	18	;# 
   677     0013                     SSPBUF          equ	19	;# 
   678     0014                     SSPCON          equ	20	;# 
   679     0015                     CCPR1           equ	21	;# 
   680     0015                     CCPR1L          equ	21	;# 
   681     0016                     CCPR1H          equ	22	;# 
   682     0017                     CCP1CON         equ	23	;# 
   683     0018                     RCSTA           equ	24	;# 
   684     0019                     TXREG           equ	25	;# 
   685     001A                     RCREG           equ	26	;# 
   686     001B                     CCPR2           equ	27	;# 
   687     001B                     CCPR2L          equ	27	;# 
   688     001C                     CCPR2H          equ	28	;# 
   689     001D                     CCP2CON         equ	29	;# 
   690     001E                     ADRESH          equ	30	;# 
   691     001F                     ADCON0          equ	31	;# 
   692     0081                     OPTION_REG      equ	129	;# 
   693     0085                     TRISA           equ	133	;# 
   694     0086                     TRISB           equ	134	;# 
   695     0087                     TRISC           equ	135	;# 
   696     0088                     TRISD           equ	136	;# 
   697     0089                     TRISE           equ	137	;# 
   698     008C                     PIE1            equ	140	;# 
   699     008D                     PIE2            equ	141	;# 
   700     008E                     PCON            equ	142	;# 
   701     0091                     SSPCON2         equ	145	;# 
   702     0092                     PR2             equ	146	;# 
   703     0093                     SSPADD          equ	147	;# 
   704     0094                     SSPSTAT         equ	148	;# 
   705     0098                     TXSTA           equ	152	;# 
   706     0099                     SPBRG           equ	153	;# 
   707     009C                     CMCON           equ	156	;# 
   708     009D                     CVRCON          equ	157	;# 
   709     009E                     ADRESL          equ	158	;# 
   710     009F                     ADCON1          equ	159	;# 
   711     010C                     EEDATA          equ	268	;# 
   712     010D                     EEADR           equ	269	;# 
   713     010E                     EEDATH          equ	270	;# 
   714     010F                     EEADRH          equ	271	;# 
   715     018C                     EECON1          equ	396	;# 
   716     018D                     EECON2          equ	397	;# 
   717     0000                     INDF            equ	0	;# 
   718     0001                     TMR0            equ	1	;# 
   719     0002                     PCL             equ	2	;# 
   720     0003                     STATUS          equ	3	;# 
   721     0004                     FSR             equ	4	;# 
   722     0005                     PORTA           equ	5	;# 
   723     0006                     PORTB           equ	6	;# 
   724     0007                     PORTC           equ	7	;# 
   725     0008                     PORTD           equ	8	;# 
   726     0009                     PORTE           equ	9	;# 
   727     000A                     PCLATH          equ	10	;# 
   728     000B                     INTCON          equ	11	;# 
   729     000C                     PIR1            equ	12	;# 
   730     000D                     PIR2            equ	13	;# 
   731     000E                     TMR1            equ	14	;# 
   732     000E                     TMR1L           equ	14	;# 
   733     000F                     TMR1H           equ	15	;# 
   734     0010                     T1CON           equ	16	;# 
   735     0011                     TMR2            equ	17	;# 
   736     0012                     T2CON           equ	18	;# 
   737     0013                     SSPBUF          equ	19	;# 
   738     0014                     SSPCON          equ	20	;# 
   739     0015                     CCPR1           equ	21	;# 
   740     0015                     CCPR1L          equ	21	;# 
   741     0016                     CCPR1H          equ	22	;# 
   742     0017                     CCP1CON         equ	23	;# 
   743     0018                     RCSTA           equ	24	;# 
   744     0019                     TXREG           equ	25	;# 
   745     001A                     RCREG           equ	26	;# 
   746     001B                     CCPR2           equ	27	;# 
   747     001B                     CCPR2L          equ	27	;# 
   748     001C                     CCPR2H          equ	28	;# 
   749     001D                     CCP2CON         equ	29	;# 
   750     001E                     ADRESH          equ	30	;# 
   751     001F                     ADCON0          equ	31	;# 
   752     0081                     OPTION_REG      equ	129	;# 
   753     0085                     TRISA           equ	133	;# 
   754     0086                     TRISB           equ	134	;# 
   755     0087                     TRISC           equ	135	;# 
   756     0088                     TRISD           equ	136	;# 
   757     0089                     TRISE           equ	137	;# 
   758     008C                     PIE1            equ	140	;# 
   759     008D                     PIE2            equ	141	;# 
   760     008E                     PCON            equ	142	;# 
   761     0091                     SSPCON2         equ	145	;# 
   762     0092                     PR2             equ	146	;# 
   763     0093                     SSPADD          equ	147	;# 
   764     0094                     SSPSTAT         equ	148	;# 
   765     0098                     TXSTA           equ	152	;# 
   766     0099                     SPBRG           equ	153	;# 
   767     009C                     CMCON           equ	156	;# 
   768     009D                     CVRCON          equ	157	;# 
   769     009E                     ADRESL          equ	158	;# 
   770     009F                     ADCON1          equ	159	;# 
   771     010C                     EEDATA          equ	268	;# 
   772     010D                     EEADR           equ	269	;# 
   773     010E                     EEDATH          equ	270	;# 
   774     010F                     EEADRH          equ	271	;# 
   775     018C                     EECON1          equ	396	;# 
   776     018D                     EECON2          equ	397	;# 
   777     0000                     INDF            equ	0	;# 
   778     0001                     TMR0            equ	1	;# 
   779     0002                     PCL             equ	2	;# 
   780     0003                     STATUS          equ	3	;# 
   781     0004                     FSR             equ	4	;# 
   782     0005                     PORTA           equ	5	;# 
   783     0006                     PORTB           equ	6	;# 
   784     0007                     PORTC           equ	7	;# 
   785     0008                     PORTD           equ	8	;# 
   786     0009                     PORTE           equ	9	;# 
   787     000A                     PCLATH          equ	10	;# 
   788     000B                     INTCON          equ	11	;# 
   789     000C                     PIR1            equ	12	;# 
   790     000D                     PIR2            equ	13	;# 
   791     000E                     TMR1            equ	14	;# 
   792     000E                     TMR1L           equ	14	;# 
   793     000F                     TMR1H           equ	15	;# 
   794     0010                     T1CON           equ	16	;# 
   795     0011                     TMR2            equ	17	;# 
   796     0012                     T2CON           equ	18	;# 
   797     0013                     SSPBUF          equ	19	;# 
   798     0014                     SSPCON          equ	20	;# 
   799     0015                     CCPR1           equ	21	;# 
   800     0015                     CCPR1L          equ	21	;# 
   801     0016                     CCPR1H          equ	22	;# 
   802     0017                     CCP1CON         equ	23	;# 
   803     0018                     RCSTA           equ	24	;# 
   804     0019                     TXREG           equ	25	;# 
   805     001A                     RCREG           equ	26	;# 
   806     001B                     CCPR2           equ	27	;# 
   807     001B                     CCPR2L          equ	27	;# 
   808     001C                     CCPR2H          equ	28	;# 
   809     001D                     CCP2CON         equ	29	;# 
   810     001E                     ADRESH          equ	30	;# 
   811     001F                     ADCON0          equ	31	;# 
   812     0081                     OPTION_REG      equ	129	;# 
   813     0085                     TRISA           equ	133	;# 
   814     0086                     TRISB           equ	134	;# 
   815     0087                     TRISC           equ	135	;# 
   816     0088                     TRISD           equ	136	;# 
   817     0089                     TRISE           equ	137	;# 
   818     008C                     PIE1            equ	140	;# 
   819     008D                     PIE2            equ	141	;# 
   820     008E                     PCON            equ	142	;# 
   821     0091                     SSPCON2         equ	145	;# 
   822     0092                     PR2             equ	146	;# 
   823     0093                     SSPADD          equ	147	;# 
   824     0094                     SSPSTAT         equ	148	;# 
   825     0098                     TXSTA           equ	152	;# 
   826     0099                     SPBRG           equ	153	;# 
   827     009C                     CMCON           equ	156	;# 
   828     009D                     CVRCON          equ	157	;# 
   829     009E                     ADRESL          equ	158	;# 
   830     009F                     ADCON1          equ	159	;# 
   831     010C                     EEDATA          equ	268	;# 
   832     010D                     EEADR           equ	269	;# 
   833     010E                     EEDATH          equ	270	;# 
   834     010F                     EEADRH          equ	271	;# 
   835     018C                     EECON1          equ	396	;# 
   836     018D                     EECON2          equ	397	;# 
   837                           
   838                           	psect	idataBANK0
   839     10C7                     __pidataBANK0:
   840                           
   841                           ;initializer for _event_count
   842     10C7  34FF               	retlw	255
   843     10C8  34FF               	retlw	255
   844                           
   845                           ;initializer for _pos
   846     10C9  34FF               	retlw	255
   847     10CA  34FF               	retlw	255
   848                           
   849                           ;initializer for login@attempts_rem
   850     10CB  3403               	retlw	3
   851                           
   852                           ;initializer for _return_time
   853     10CC  3405               	retlw	5
   854                           
   855                           	psect	idataBANK1
   856     06E4                     __pidataBANK1:
   857                           
   858                           ;initializer for main@F1225
   859     06E4  34F4               	retlw	low (STR_41| (0+32768))
   860     06E5  3488               	retlw	high (STR_41| (0+32768))
   861     06E6  34EB               	retlw	low (STR_42| (0+32768))
   862     06E7  3488               	retlw	high (STR_42| (0+32768))
   863     06E8  34D9               	retlw	low (STR_43| (0+32768))
   864     06E9  3488               	retlw	high (STR_43| (0+32768))
   865     06EA  34DC               	retlw	low (STR_44| (0+32768))
   866     06EB  3488               	retlw	high (STR_44| (0+32768))
   867     06EC  34DF               	retlw	low (STR_45| (0+32768))
   868     06ED  3488               	retlw	high (STR_45| (0+32768))
   869     06EE  34E2               	retlw	low (STR_46| (0+32768))
   870     06EF  3488               	retlw	high (STR_46| (0+32768))
   871                           
   872                           ;initializer for _menu
   873     06F0  34AE               	retlw	low (STR_1| (0+32768))
   874     06F1  3488               	retlw	high (STR_1| (0+32768))
   875     06F2  349B               	retlw	low (STR_2| (0+32768))
   876     06F3  3488               	retlw	high (STR_2| (0+32768))
   877     06F4  3474               	retlw	low (STR_3| (0+32768))
   878     06F5  3488               	retlw	high (STR_3| (0+32768))
   879     06F6  343E               	retlw	low (STR_4| (0+32768))
   880     06F7  3488               	retlw	high (STR_4| (0+32768))
   881     06F8  34A5               	retlw	low (STR_5| (0+32768))
   882     06F9  3488               	retlw	high (STR_5| (0+32768))
   883                           
   884                           ;initializer for main@F1223
   885     06FA  344F               	retlw	79
   886     06FB  344E               	retlw	78
   887     06FC  3400               	retlw	0
   888     0019                     _TXREG          set	25
   889     001A                     _RCREG          set	26
   890     0013                     _SSPBUF         set	19
   891     0006                     _PORTB          set	6
   892     0008                     _PORTD          set	8
   893     001E                     _ADRESH         set	30
   894     0064                     _TXIF           set	100
   895     0065                     _RCIF           set	101
   896     00C4                     _CREN           set	196
   897     00C7                     _SPEN           set	199
   898     0091                     _T2CKPS1        set	145
   899     0090                     _T2CKPS0        set	144
   900     0092                     _TMR2ON         set	146
   901     005F                     _GIE            set	95
   902     005E                     _PEIE           set	94
   903     0061                     _TMR2IF         set	97
   904     00A5                     _SSPEN          set	165
   905     00A3                     _SSPM3          set	163
   906     0049                     _RE1            set	73
   907     004A                     _RE2            set	74
   908     00FA                     _nDONE          set	250
   909     00FA                     _GO             set	250
   910     00F8                     _ADON           set	248
   911     0099                     _SPBRG          set	153
   912     0092                     _PR2            set	146
   913     0091                     _SSPCON2        set	145
   914     0093                     _SSPADD         set	147
   915     0086                     _TRISB          set	134
   916     0088                     _TRISD          set	136
   917     009E                     _ADRESL         set	158
   918     0461                     _TMR2IE         set	1121
   919     048E                     _ACKSTAT        set	1166
   920     048C                     _ACKEN          set	1164
   921     048D                     _ACKDT          set	1165
   922     048B                     _RCEN           set	1163
   923     048A                     _PEN            set	1162
   924     0488                     _SEN            set	1160
   925     04A2                     _R_nW           set	1186
   926     0449                     _TRISE1         set	1097
   927     044A                     _TRISE2         set	1098
   928     04FF                     _ADFM           set	1279
   929                           
   930                           	psect	strings
   931     1000                     __pstrings:
   932     1000                     stringtab:
   933     1000                     __stringtab:
   934                           
   935                           ;	String table - string pointers are 2 bytes each
   936     1000  1BFF               	btfsc	btemp+1,7
   937     1001  280A               	ljmp	stringcode
   938     1002  1383               	bcf	3,7
   939     1003  187F               	btfsc	btemp+1,0
   940     1004  1783               	bsf	3,7
   941     1005  0800               	movf	0,w
   942     1006  0A84               	incf	4,f
   943     1007  1903               	skipnz
   944     1008  0AFF               	incf	btemp+1,f
   945     1009  0008               	return
   946     100A                     stringcode:
   947     100A  087F               	movf	btemp+1,w
   948     100B  397F               	andlw	127
   949     100C  008A               	movwf	10
   950     100D  0804               	movf	4,w
   951     100E  0A84               	incf	4,f
   952     100F  1903               	skipnz
   953     1010  0AFF               	incf	btemp+1,f
   954     1011  0082               	movwf	2
   955     1012                     __stringbase:
   956     1012                     __end_of__stringtab:
   957                           
   958                           	psect	stringtext
   959     0700                     __pstringtext:
   960     0700                     STR_22:
   961     0700  3423               	retlw	35	;'#'
   962     0701  3420               	retlw	32	;' '
   963     0702  3420               	retlw	32	;' '
   964     0703  3420               	retlw	32	;' '
   965     0704  3420               	retlw	32	;' '
   966     0705  3420               	retlw	32	;' '
   967     0706  3454               	retlw	84	;'T'
   968     0707  3469               	retlw	105	;'i'
   969     0708  346D               	retlw	109	;'m'
   970     0709  3465               	retlw	101	;'e'
   971     070A  3420               	retlw	32	;' '
   972     070B  3420               	retlw	32	;' '
   973     070C  3420               	retlw	32	;' '
   974     070D  3420               	retlw	32	;' '
   975     070E  3420               	retlw	32	;' '
   976     070F  3420               	retlw	32	;' '
   977     0710  3420               	retlw	32	;' '
   978     0711  3445               	retlw	69	;'E'
   979     0712  3476               	retlw	118	;'v'
   980     0713  3465               	retlw	101	;'e'
   981     0714  346E               	retlw	110	;'n'
   982     0715  3474               	retlw	116	;'t'
   983     0716  3420               	retlw	32	;' '
   984     0717  3420               	retlw	32	;' '
   985     0718  3420               	retlw	32	;' '
   986     0719  3420               	retlw	32	;' '
   987     071A  3453               	retlw	83	;'S'
   988     071B  3470               	retlw	112	;'p'
   989     071C  3465               	retlw	101	;'e'
   990     071D  3465               	retlw	101	;'e'
   991     071E  3464               	retlw	100	;'d'
   992     071F  3400               	retlw	0
   993     0720                     STR_53:
   994     0720  3420               	retlw	32	;' '
   995     0721  3420               	retlw	32	;' '
   996     0722  3420               	retlw	32	;' '
   997     0723  3420               	retlw	32	;' '
   998     0724  3420               	retlw	32	;' '
   999     0725  3454               	retlw	84	;'T'
  1000     0726  3465               	retlw	101	;'e'
  1001     0727  3472               	retlw	114	;'r'
  1002     0728  3461               	retlw	97	;'a'
  1003     0729  3420               	retlw	32	;' '
  1004     072A  3454               	retlw	84	;'T'
  1005     072B  3465               	retlw	101	;'e'
  1006     072C  3472               	retlw	114	;'r'
  1007     072D  346D               	retlw	109	;'m'
  1008     072E  3420               	retlw	32	;' '
  1009     072F  3420               	retlw	32	;' '
  1010     0730  3420               	retlw	32	;' '
  1011     0731  3420               	retlw	32	;' '
  1012     0732  3400               	retlw	0
  1013     0733                     STR_52:
  1014     0733  3420               	retlw	32	;' '
  1015     0734  3420               	retlw	32	;' '
  1016     0735  3420               	retlw	32	;' '
  1017     0736  3420               	retlw	32	;' '
  1018     0737  3420               	retlw	32	;' '
  1019     0738  3420               	retlw	32	;' '
  1020     0739  3420               	retlw	32	;' '
  1021     073A  344F               	retlw	79	;'O'
  1022     073B  3470               	retlw	112	;'p'
  1023     073C  3465               	retlw	101	;'e'
  1024     073D  346E               	retlw	110	;'n'
  1025     073E  3420               	retlw	32	;' '
  1026     073F  3420               	retlw	32	;' '
  1027     0740  3420               	retlw	32	;' '
  1028     0741  3420               	retlw	32	;' '
  1029     0742  3420               	retlw	32	;' '
  1030     0743  3420               	retlw	32	;' '
  1031     0744  3400               	retlw	0
  1032     0745                     STR_29:
  1033     0745  3420               	retlw	32	;' '
  1034     0746  3420               	retlw	32	;' '
  1035     0747  3420               	retlw	32	;' '
  1036     0748  3420               	retlw	32	;' '
  1037     0749  3420               	retlw	32	;' '
  1038     074A  3420               	retlw	32	;' '
  1039     074B  3420               	retlw	32	;' '
  1040     074C  3420               	retlw	32	;' '
  1041     074D  3420               	retlw	32	;' '
  1042     074E  3420               	retlw	32	;' '
  1043     074F  3420               	retlw	32	;' '
  1044     0750  3420               	retlw	32	;' '
  1045     0751  3420               	retlw	32	;' '
  1046     0752  3420               	retlw	32	;' '
  1047     0753  3420               	retlw	32	;' '
  1048     0754  3420               	retlw	32	;' '
  1049     0755  3420               	retlw	32	;' '
  1050     0756  3400               	retlw	0
  1051     0757                     STR_20:
  1052     0757  344E               	retlw	78	;'N'
  1053     0758  346F               	retlw	111	;'o'
  1054     0759  3420               	retlw	32	;' '
  1055     075A  346C               	retlw	108	;'l'
  1056     075B  346F               	retlw	111	;'o'
  1057     075C  3467               	retlw	103	;'g'
  1058     075D  3473               	retlw	115	;'s'
  1059     075E  3420               	retlw	32	;' '
  1060     075F  3461               	retlw	97	;'a'
  1061     0760  3476               	retlw	118	;'v'
  1062     0761  3461               	retlw	97	;'a'
  1063     0762  3469               	retlw	105	;'i'
  1064     0763  346C               	retlw	108	;'l'
  1065     0764  3461               	retlw	97	;'a'
  1066     0765  3462               	retlw	98	;'b'
  1067     0766  346C               	retlw	108	;'l'
  1068     0767  3465               	retlw	101	;'e'
  1069     0768  3400               	retlw	0
  1070     0769                     STR_50:
  1071     0769  3420               	retlw	32	;' '
  1072     076A  3420               	retlw	32	;' '
  1073     076B  3420               	retlw	32	;' '
  1074     076C  3420               	retlw	32	;' '
  1075     076D  3420               	retlw	32	;' '
  1076     076E  3420               	retlw	32	;' '
  1077     076F  344C               	retlw	76	;'L'
  1078     0770  346F               	retlw	111	;'o'
  1079     0771  3467               	retlw	103	;'g'
  1080     0772  3473               	retlw	115	;'s'
  1081     0773  3420               	retlw	32	;' '
  1082     0774  3420               	retlw	32	;' '
  1083     0775  3420               	retlw	32	;' '
  1084     0776  3420               	retlw	32	;' '
  1085     0777  3420               	retlw	32	;' '
  1086     0778  3420               	retlw	32	;' '
  1087     0779  3400               	retlw	0
  1088     077A                     STR_15:
  1089     077A  3420               	retlw	32	;' '
  1090     077B  3420               	retlw	32	;' '
  1091     077C  3420               	retlw	32	;' '
  1092     077D  3420               	retlw	32	;' '
  1093     077E  344E               	retlw	78	;'N'
  1094     077F  346F               	retlw	111	;'o'
  1095     0780  3420               	retlw	32	;' '
  1096     0781  346C               	retlw	108	;'l'
  1097     0782  346F               	retlw	111	;'o'
  1098     0783  3467               	retlw	103	;'g'
  1099     0784  3473               	retlw	115	;'s'
  1100     0785  3420               	retlw	32	;' '
  1101     0786  3420               	retlw	32	;' '
  1102     0787  3420               	retlw	32	;' '
  1103     0788  3420               	retlw	32	;' '
  1104     0789  3420               	retlw	32	;' '
  1105     078A  3400               	retlw	0
  1106     078B                     STR_27:
  1107     078B  3445               	retlw	69	;'E'
  1108     078C  346E               	retlw	110	;'n'
  1109     078D  3474               	retlw	116	;'t'
  1110     078E  3465               	retlw	101	;'e'
  1111     078F  3472               	retlw	114	;'r'
  1112     0790  3420               	retlw	32	;' '
  1113     0791  346E               	retlw	110	;'n'
  1114     0792  3465               	retlw	101	;'e'
  1115     0793  3477               	retlw	119	;'w'
  1116     0794  3420               	retlw	32	;' '
  1117     0795  3470               	retlw	112	;'p'
  1118     0796  3477               	retlw	119	;'w'
  1119     0797  3464               	retlw	100	;'d'
  1120     0798  343A               	retlw	58	;':'
  1121     0799  3420               	retlw	32	;' '
  1122     079A  3420               	retlw	32	;' '
  1123     079B  3400               	retlw	0
  1124     079C                     STR_13:
  1125     079C  3420               	retlw	32	;' '
  1126     079D  3445               	retlw	69	;'E'
  1127     079E  346E               	retlw	110	;'n'
  1128     079F  3474               	retlw	116	;'t'
  1129     07A0  3465               	retlw	101	;'e'
  1130     07A1  3472               	retlw	114	;'r'
  1131     07A2  3420               	retlw	32	;' '
  1132     07A3  3450               	retlw	80	;'P'
  1133     07A4  3461               	retlw	97	;'a'
  1134     07A5  3473               	retlw	115	;'s'
  1135     07A6  3473               	retlw	115	;'s'
  1136     07A7  3477               	retlw	119	;'w'
  1137     07A8  346F               	retlw	111	;'o'
  1138     07A9  3472               	retlw	114	;'r'
  1139     07AA  3464               	retlw	100	;'d'
  1140     07AB  3420               	retlw	32	;' '
  1141     07AC  3400               	retlw	0
  1142     07AD                     STR_6:
  1143     07AD  3420               	retlw	32	;' '
  1144     07AE  3420               	retlw	32	;' '
  1145     07AF  3454               	retlw	84	;'T'
  1146     07B0  3449               	retlw	73	;'I'
  1147     07B1  344D               	retlw	77	;'M'
  1148     07B2  3445               	retlw	69	;'E'
  1149     07B3  3420               	retlw	32	;' '
  1150     07B4  3420               	retlw	32	;' '
  1151     07B5  3420               	retlw	32	;' '
  1152     07B6  3420               	retlw	32	;' '
  1153     07B7  3420               	retlw	32	;' '
  1154     07B8  3445               	retlw	69	;'E'
  1155     07B9  3420               	retlw	32	;' '
  1156     07BA  3420               	retlw	32	;' '
  1157     07BB  3453               	retlw	83	;'S'
  1158     07BC  3450               	retlw	80	;'P'
  1159     07BD  3400               	retlw	0
  1160     07BE                     STR_31:
  1161     07BE  3450               	retlw	80	;'P'
  1162     07BF  3461               	retlw	97	;'a'
  1163     07C0  3473               	retlw	115	;'s'
  1164     07C1  3473               	retlw	115	;'s'
  1165     07C2  3477               	retlw	119	;'w'
  1166     07C3  346F               	retlw	111	;'o'
  1167     07C4  3472               	retlw	114	;'r'
  1168     07C5  3464               	retlw	100	;'d'
  1169     07C6  3420               	retlw	32	;' '
  1170     07C7  3463               	retlw	99	;'c'
  1171     07C8  3468               	retlw	104	;'h'
  1172     07C9  3461               	retlw	97	;'a'
  1173     07CA  346E               	retlw	110	;'n'
  1174     07CB  3467               	retlw	103	;'g'
  1175     07CC  3465               	retlw	101	;'e'
  1176     07CD  3464               	retlw	100	;'d'
  1177     07CE  3400               	retlw	0
  1178     07CF                     STR_28:
  1179     07CF  3452               	retlw	82	;'R'
  1180     07D0  3465               	retlw	101	;'e'
  1181     07D1  342D               	retlw	45	;'-'
  1182     07D2  3465               	retlw	101	;'e'
  1183     07D3  346E               	retlw	110	;'n'
  1184     07D4  3474               	retlw	116	;'t'
  1185     07D5  3465               	retlw	101	;'e'
  1186     07D6  3472               	retlw	114	;'r'
  1187     07D7  3420               	retlw	32	;' '
  1188     07D8  346E               	retlw	110	;'n'
  1189     07D9  3465               	retlw	101	;'e'
  1190     07DA  3477               	retlw	119	;'w'
  1191     07DB  3420               	retlw	32	;' '
  1192     07DC  3470               	retlw	112	;'p'
  1193     07DD  3477               	retlw	119	;'w'
  1194     07DE  3464               	retlw	100	;'d'
  1195     07DF  3400               	retlw	0
  1196     07E0                     STR_33:
  1197     07E0  3450               	retlw	80	;'P'
  1198     07E1  3461               	retlw	97	;'a'
  1199     07E2  3473               	retlw	115	;'s'
  1200     07E3  3473               	retlw	115	;'s'
  1201     07E4  3477               	retlw	119	;'w'
  1202     07E5  346F               	retlw	111	;'o'
  1203     07E6  3472               	retlw	114	;'r'
  1204     07E7  3464               	retlw	100	;'d'
  1205     07E8  3420               	retlw	32	;' '
  1206     07E9  3420               	retlw	32	;' '
  1207     07EA  3463               	retlw	99	;'c'
  1208     07EB  3468               	retlw	104	;'h'
  1209     07EC  3461               	retlw	97	;'a'
  1210     07ED  346E               	retlw	110	;'n'
  1211     07EE  3467               	retlw	103	;'g'
  1212     07EF  3465               	retlw	101	;'e'
  1213     07F0  3400               	retlw	0
  1214     07F1                     STR_11:
  1215     07F1  3457               	retlw	87	;'W'
  1216     07F2  3472               	retlw	114	;'r'
  1217     07F3  346F               	retlw	111	;'o'
  1218     07F4  346E               	retlw	110	;'n'
  1219     07F5  3467               	retlw	103	;'g'
  1220     07F6  3420               	retlw	32	;' '
  1221     07F7  3470               	retlw	112	;'p'
  1222     07F8  3461               	retlw	97	;'a'
  1223     07F9  3473               	retlw	115	;'s'
  1224     07FA  3473               	retlw	115	;'s'
  1225     07FB  3477               	retlw	119	;'w'
  1226     07FC  346F               	retlw	111	;'o'
  1227     07FD  3472               	retlw	114	;'r'
  1228     07FE  3464               	retlw	100	;'d'
  1229     07FF  3420               	retlw	32	;' '
  1230     0800  3400               	retlw	0
  1231     0801                     STR_35:
  1232     0801  3454               	retlw	84	;'T'
  1233     0802  3469               	retlw	105	;'i'
  1234     0803  346D               	retlw	109	;'m'
  1235     0804  3465               	retlw	101	;'e'
  1236     0805  3420               	retlw	32	;' '
  1237     0806  3428               	retlw	40	;'('
  1238     0807  3448               	retlw	72	;'H'
  1239     0808  3448               	retlw	72	;'H'
  1240     0809  343A               	retlw	58	;':'
  1241     080A  344D               	retlw	77	;'M'
  1242     080B  344D               	retlw	77	;'M'
  1243     080C  343A               	retlw	58	;':'
  1244     080D  3453               	retlw	83	;'S'
  1245     080E  3453               	retlw	83	;'S'
  1246     080F  3429               	retlw	41	;')'
  1247     0810  3400               	retlw	0
  1248     0811                     STR_8:
  1249     0811  3459               	retlw	89	;'Y'
  1250     0812  346F               	retlw	111	;'o'
  1251     0813  3475               	retlw	117	;'u'
  1252     0814  3420               	retlw	32	;' '
  1253     0815  3461               	retlw	97	;'a'
  1254     0816  3472               	retlw	114	;'r'
  1255     0817  3465               	retlw	101	;'e'
  1256     0818  3420               	retlw	32	;' '
  1257     0819  3462               	retlw	98	;'b'
  1258     081A  346C               	retlw	108	;'l'
  1259     081B  346F               	retlw	111	;'o'
  1260     081C  3463               	retlw	99	;'c'
  1261     081D  346B               	retlw	107	;'k'
  1262     081E  3465               	retlw	101	;'e'
  1263     081F  3464               	retlw	100	;'d'
  1264     0820  3400               	retlw	0
  1265     0821                     STR_12:
  1266     0821  3461               	retlw	97	;'a'
  1267     0822  3474               	retlw	116	;'t'
  1268     0823  3474               	retlw	116	;'t'
  1269     0824  3465               	retlw	101	;'e'
  1270     0825  346D               	retlw	109	;'m'
  1271     0826  3470               	retlw	112	;'p'
  1272     0827  3474               	retlw	116	;'t'
  1273     0828  3420               	retlw	32	;' '
  1274     0829  346C               	retlw	108	;'l'
  1275     082A  3465               	retlw	101	;'e'
  1276     082B  3466               	retlw	102	;'f'
  1277     082C  3474               	retlw	116	;'t'
  1278     082D  3420               	retlw	32	;' '
  1279     082E  3420               	retlw	32	;' '
  1280     082F  3400               	retlw	0
  1281     0830                     STR_32:
  1282     0830  3473               	retlw	115	;'s'
  1283     0831  3475               	retlw	117	;'u'
  1284     0832  3463               	retlw	99	;'c'
  1285     0833  3463               	retlw	99	;'c'
  1286     0834  3465               	retlw	101	;'e'
  1287     0835  3473               	retlw	115	;'s'
  1288     0836  3473               	retlw	115	;'s'
  1289     0837  3466               	retlw	102	;'f'
  1290     0838  3475               	retlw	117	;'u'
  1291     0839  346C               	retlw	108	;'l'
  1292     083A  346C               	retlw	108	;'l'
  1293     083B  3479               	retlw	121	;'y'
  1294     083C  3420               	retlw	32	;' '
  1295     083D  3400               	retlw	0
  1296     083E                     STR_4:
  1297     083E  3443               	retlw	67	;'C'
  1298     083F  3468               	retlw	104	;'h'
  1299     0840  3461               	retlw	97	;'a'
  1300     0841  346E               	retlw	110	;'n'
  1301     0842  3467               	retlw	103	;'g'
  1302     0843  3465               	retlw	101	;'e'
  1303     0844  3420               	retlw	32	;' '
  1304     0845  3470               	retlw	112	;'p'
  1305     0846  3461               	retlw	97	;'a'
  1306     0847  3473               	retlw	115	;'s'
  1307     0848  3473               	retlw	115	;'s'
  1308     0849  3477               	retlw	119	;'w'
  1309     084A  3464               	retlw	100	;'d'
  1310     084B  3400               	retlw	0
  1311     084C                     STR_7:
  1312     084C  344C               	retlw	76	;'L'
  1313     084D  346F               	retlw	111	;'o'
  1314     084E  3467               	retlw	103	;'g'
  1315     084F  3469               	retlw	105	;'i'
  1316     0850  346E               	retlw	110	;'n'
  1317     0851  3420               	retlw	32	;' '
  1318     0852  3453               	retlw	83	;'S'
  1319     0853  3475               	retlw	117	;'u'
  1320     0854  3463               	retlw	99	;'c'
  1321     0855  3463               	retlw	99	;'c'
  1322     0856  3465               	retlw	101	;'e'
  1323     0857  3473               	retlw	115	;'s'
  1324     0858  3473               	retlw	115	;'s'
  1325     0859  3400               	retlw	0
  1326     085A                     STR_36:
  1327     085A  3454               	retlw	84	;'T'
  1328     085B  3469               	retlw	105	;'i'
  1329     085C  346D               	retlw	109	;'m'
  1330     085D  3465               	retlw	101	;'e'
  1331     085E  3420               	retlw	32	;' '
  1332     085F  3463               	retlw	99	;'c'
  1333     0860  3468               	retlw	104	;'h'
  1334     0861  3461               	retlw	97	;'a'
  1335     0862  346E               	retlw	110	;'n'
  1336     0863  3467               	retlw	103	;'g'
  1337     0864  3465               	retlw	101	;'e'
  1338     0865  3464               	retlw	100	;'d'
  1339     0866  3400               	retlw	0
  1340     0867                     STR_18:
  1341     0867  344C               	retlw	76	;'L'
  1342     0868  346F               	retlw	111	;'o'
  1343     0869  3467               	retlw	103	;'g'
  1344     086A  3473               	retlw	115	;'s'
  1345     086B  3420               	retlw	32	;' '
  1346     086C  3463               	retlw	99	;'c'
  1347     086D  346C               	retlw	108	;'l'
  1348     086E  3465               	retlw	101	;'e'
  1349     086F  3461               	retlw	97	;'a'
  1350     0870  3472               	retlw	114	;'r'
  1351     0871  3465               	retlw	101	;'e'
  1352     0872  3464               	retlw	100	;'d'
  1353     0873  3400               	retlw	0
  1354     0874                     STR_3:
  1355     0874  3444               	retlw	68	;'D'
  1356     0875  346F               	retlw	111	;'o'
  1357     0876  3477               	retlw	119	;'w'
  1358     0877  346E               	retlw	110	;'n'
  1359     0878  346C               	retlw	108	;'l'
  1360     0879  346F               	retlw	111	;'o'
  1361     087A  3461               	retlw	97	;'a'
  1362     087B  3464               	retlw	100	;'d'
  1363     087C  3420               	retlw	32	;' '
  1364     087D  346C               	retlw	108	;'l'
  1365     087E  346F               	retlw	111	;'o'
  1366     087F  3467               	retlw	103	;'g'
  1367     0880  3400               	retlw	0
  1368     0881                     STR_37:
  1369     0881  3453               	retlw	83	;'S'
  1370     0882  3475               	retlw	117	;'u'
  1371     0883  3463               	retlw	99	;'c'
  1372     0884  3463               	retlw	99	;'c'
  1373     0885  3465               	retlw	101	;'e'
  1374     0886  3473               	retlw	115	;'s'
  1375     0887  3473               	retlw	115	;'s'
  1376     0888  3466               	retlw	102	;'f'
  1377     0889  3475               	retlw	117	;'u'
  1378     088A  346C               	retlw	108	;'l'
  1379     088B  346C               	retlw	108	;'l'
  1380     088C  3479               	retlw	121	;'y'
  1381     088D  3400               	retlw	0
  1382     088E                     STR_19:
  1383     088E  3473               	retlw	115	;'s'
  1384     088F  3475               	retlw	117	;'u'
  1385     0890  3463               	retlw	99	;'c'
  1386     0891  3463               	retlw	99	;'c'
  1387     0892  3465               	retlw	101	;'e'
  1388     0893  3473               	retlw	115	;'s'
  1389     0894  3473               	retlw	115	;'s'
  1390     0895  3466               	retlw	102	;'f'
  1391     0896  3475               	retlw	117	;'u'
  1392     0897  346C               	retlw	108	;'l'
  1393     0898  346C               	retlw	108	;'l'
  1394     0899  3479               	retlw	121	;'y'
  1395     089A  3400               	retlw	0
  1396     089B                     STR_2:
  1397     089B  3443               	retlw	67	;'C'
  1398     089C  346C               	retlw	108	;'l'
  1399     089D  3465               	retlw	101	;'e'
  1400     089E  3461               	retlw	97	;'a'
  1401     089F  3472               	retlw	114	;'r'
  1402     08A0  3420               	retlw	32	;' '
  1403     08A1  346C               	retlw	108	;'l'
  1404     08A2  346F               	retlw	111	;'o'
  1405     08A3  3467               	retlw	103	;'g'
  1406     08A4  3400               	retlw	0
  1407     08A5                     STR_5:
  1408     08A5  3453               	retlw	83	;'S'
  1409     08A6  3465               	retlw	101	;'e'
  1410     08A7  3474               	retlw	116	;'t'
  1411     08A8  3420               	retlw	32	;' '
  1412     08A9  3474               	retlw	116	;'t'
  1413     08AA  3469               	retlw	105	;'i'
  1414     08AB  346D               	retlw	109	;'m'
  1415     08AC  3465               	retlw	101	;'e'
  1416     08AD  3400               	retlw	0
  1417     08AE                     STR_1:
  1418     08AE  3456               	retlw	86	;'V'
  1419     08AF  3469               	retlw	105	;'i'
  1420     08B0  3465               	retlw	101	;'e'
  1421     08B1  3477               	retlw	119	;'w'
  1422     08B2  3420               	retlw	32	;' '
  1423     08B3  346C               	retlw	108	;'l'
  1424     08B4  346F               	retlw	111	;'o'
  1425     08B5  3467               	retlw	103	;'g'
  1426     08B6  3400               	retlw	0
  1427     08B7                     STR_9:
  1428     08B7  3457               	retlw	87	;'W'
  1429     08B8  3461               	retlw	97	;'a'
  1430     08B9  3469               	retlw	105	;'i'
  1431     08BA  3474               	retlw	116	;'t'
  1432     08BB  3420               	retlw	32	;' '
  1433     08BC  3466               	retlw	102	;'f'
  1434     08BD  346F               	retlw	111	;'o'
  1435     08BE  3472               	retlw	114	;'r'
  1436     08BF  3400               	retlw	0
  1437     08C0                     STR_21:
  1438     08C0  344C               	retlw	76	;'L'
  1439     08C1  346F               	retlw	111	;'o'
  1440     08C2  3467               	retlw	103	;'g'
  1441     08C3  3473               	retlw	115	;'s'
  1442     08C4  3420               	retlw	32	;' '
  1443     08C5  343A               	retlw	58	;':'
  1444     08C6  3400               	retlw	0
  1445     08C7                     STR_34:
  1446     08C7  3466               	retlw	102	;'f'
  1447     08C8  3461               	retlw	97	;'a'
  1448     08C9  3469               	retlw	105	;'i'
  1449     08CA  346C               	retlw	108	;'l'
  1450     08CB  3465               	retlw	101	;'e'
  1451     08CC  3464               	retlw	100	;'d'
  1452     08CD  3400               	retlw	0
  1453     08CE                     STR_10:
  1454     08CE  3473               	retlw	115	;'s'
  1455     08CF  3465               	retlw	101	;'e'
  1456     08D0  3463               	retlw	99	;'c'
  1457     08D1  3473               	retlw	115	;'s'
  1458     08D2  3420               	retlw	32	;' '
  1459     08D3  3400               	retlw	0
  1460     08D4                     STR_47:
  1461     08D4  3431               	retlw	49	;'1'
  1462     08D5  3430               	retlw	48	;'0'
  1463     08D6  3431               	retlw	49	;'1'
  1464     08D7  3430               	retlw	48	;'0'
  1465     08D8  3400               	retlw	0
  1466     08D9                     STR_43:
  1467     08D9  3447               	retlw	71	;'G'
  1468     08DA  3431               	retlw	49	;'1'
  1469     08DB  3400               	retlw	0
  1470     08DC                     STR_44:
  1471     08DC  3447               	retlw	71	;'G'
  1472     08DD  3432               	retlw	50	;'2'
  1473     08DE  3400               	retlw	0
  1474     08DF                     STR_45:
  1475     08DF  3447               	retlw	71	;'G'
  1476     08E0  3433               	retlw	51	;'3'
  1477     08E1  3400               	retlw	0
  1478     08E2                     STR_46:
  1479     08E2  3447               	retlw	71	;'G'
  1480     08E3  3434               	retlw	52	;'4'
  1481     08E4  3400               	retlw	0
  1482     08E5                     STR_55:
  1483     08E5  3443               	retlw	67	;'C'
  1484     08E6  344C               	retlw	76	;'L'
  1485     08E7  3400               	retlw	0
  1486     08E8                     STR_51:
  1487     08E8  3444               	retlw	68	;'D'
  1488     08E9  344C               	retlw	76	;'L'
  1489     08EA  3400               	retlw	0
  1490     08EB                     STR_42:
  1491     08EB  3447               	retlw	71	;'G'
  1492     08EC  344E               	retlw	78	;'N'
  1493     08ED  3400               	retlw	0
  1494     08EE                     STR_48:
  1495     08EE  3443               	retlw	67	;'C'
  1496     08EF  344F               	retlw	79	;'O'
  1497     08F0  3400               	retlw	0
  1498     08F1                     STR_56:
  1499     08F1  3443               	retlw	67	;'C'
  1500     08F2  3450               	retlw	80	;'P'
  1501     08F3  3400               	retlw	0
  1502     08F4                     STR_41:
  1503     08F4  3447               	retlw	71	;'G'
  1504     08F5  3452               	retlw	82	;'R'
  1505     08F6  3400               	retlw	0
  1506     08F7                     STR_54:
  1507     08F7  3453               	retlw	83	;'S'
  1508     08F8  3454               	retlw	84	;'T'
  1509     08F9  3400               	retlw	0
  1510     079C                     STR_49          equ	STR_13
  1511     0745                     STR_30          equ	STR_29
  1512     0746                     STR_14          equ	STR_29+1
  1513     0746                     STR_16          equ	STR_29+1
  1514     0746                     STR_17          equ	STR_29+1
  1515     074E                     STR_25          equ	STR_29+9
  1516     0751                     STR_23          equ	STR_29+12
  1517     0752                     STR_26          equ	STR_29+13
  1518     0753                     STR_24          equ	STR_29+14
  1519     0754                     STR_38          equ	STR_29+15
  1520     0754                     STR_39          equ	STR_29+15
  1521     0754                     STR_40          equ	STR_29+15
  1522                           
  1523                           	psect	cinit
  1524     000F                     start_initialization:	
  1525                           ; #config settings
  1526                           
  1527     000F                     __initialization:
  1528                           
  1529                           ; Initialize objects allocated to BANK1
  1530     000F  1383               	bcf	3,7	;select IRP bank0
  1531     0010  30DC               	movlw	low (__pdataBANK1+25)
  1532     0011  00FD               	movwf	btemp+-1
  1533     0012  3006               	movlw	high __pidataBANK1
  1534     0013  00FE               	movwf	btemp
  1535     0014  30E4               	movlw	low __pidataBANK1
  1536     0015  00FF               	movwf	btemp+1
  1537     0016  30C3               	movlw	low __pdataBANK1
  1538     0017  0084               	movwf	4
  1539     0018  120A  158A  20FE  120A  118A  	fcall	init_ram0
  1540                           
  1541                           ; Initialize objects allocated to BANK0
  1542     001D  305D               	movlw	low (__pdataBANK0+6)
  1543     001E  00FD               	movwf	btemp+-1
  1544     001F  3010               	movlw	high __pidataBANK0
  1545     0020  00FE               	movwf	btemp
  1546     0021  30C7               	movlw	low __pidataBANK0
  1547     0022  00FF               	movwf	btemp+1
  1548     0023  3057               	movlw	low __pdataBANK0
  1549     0024  0084               	movwf	4
  1550     0025  120A  158A  20FE  120A  118A  	fcall	init_ram0
  1551                           
  1552                           ; Clear objects allocated to BANK1
  1553     002A  30A0               	movlw	low __pbssBANK1
  1554     002B  0084               	movwf	4
  1555     002C  30C3               	movlw	low (__pbssBANK1+35)
  1556     002D  160A  118A  20D4  120A  118A  	fcall	clear_ram0
  1557                           
  1558                           ; Clear objects allocated to BANK0
  1559     0032  303D               	movlw	low __pbssBANK0
  1560     0033  0084               	movwf	4
  1561     0034  3057               	movlw	low (__pbssBANK0+26)
  1562     0035  160A  118A  20D4  120A  118A  	fcall	clear_ram0
  1563                           
  1564                           ; Clear objects allocated to COMMON
  1565     003A  01FA               	clrf	__pbssCOMMON& (0+127)
  1566     003B  01FB               	clrf	(__pbssCOMMON+1)& (0+127)
  1567     003C                     end_of_initialization:	
  1568                           ;End of C runtime variable initialization code
  1569                           
  1570     003C                     __end_of__initialization:
  1571     003C  0183               	clrf	3
  1572     003D  120A  118A  2840   	ljmp	_main	;jump to C main() function
  1573                           
  1574                           	psect	bssCOMMON
  1575     007A                     __pbssCOMMON:
  1576     007A                     read_digital_keypad@once:
  1577     007A                     	ds	1
  1578     007B                     change_password@pwd_changed:
  1579     007B                     	ds	1
  1580                           
  1581                           	psect	bssBANK0
  1582     003D                     __pbssBANK0:
  1583     003D                     change_time@new_time:
  1584     003D                     	ds	6
  1585     0043                     _clock_reg:
  1586     0043                     	ds	3
  1587     0046                     read_digital_keypad@long_pressed:
  1588     0046                     	ds	2
  1589     0048                     change_time@blink_pos:
  1590     0048                     	ds	2
  1591     004A                     change_password@pwd_pos:
  1592     004A                     	ds	2
  1593     004C                     view_log@index:
  1594     004C                     	ds	2
  1595     004E                     _sec:
  1596     004E                     	ds	2
  1597     0050                     read_digital_keypad@pre_key:
  1598     0050                     	ds	1
  1599     0051                     change_time@t_done:
  1600     0051                     	ds	1
  1601     0052                     change_time@blink:
  1602     0052                     	ds	1
  1603     0053                     change_time@wait:
  1604     0053                     	ds	1
  1605     0054                     change_password@toggle_cursor:
  1606     0054                     	ds	1
  1607     0055                     login_menu@menu_pos:
  1608     0055                     	ds	1
  1609     0056                     login@i:
  1610     0056                     	ds	1
  1611                           
  1612                           	psect	dataBANK0
  1613     0057                     __pdataBANK0:
  1614     0057                     _event_count:
  1615     0057                     	ds	2
  1616     0059                     _pos:
  1617     0059                     	ds	2
  1618     005B                     login@attempts_rem:
  1619     005B                     	ds	1
  1620     005C                     _return_time:
  1621     005C                     	ds	1
  1622                           
  1623                           	psect	bssBANK1
  1624     00A0                     __pbssBANK1:
  1625     00A0                     isr@count:
  1626     00A0                     	ds	2
  1627     00A2                     change_password@blink_delay:
  1628     00A2                     	ds	2
  1629     00A4                     _log:
  1630     00A4                     	ds	11
  1631     00AF                     change_password@new_pwd:
  1632     00AF                     	ds	9
  1633     00B8                     _time:
  1634     00B8                     	ds	7
  1635     00BF                     login@npassword:
  1636     00BF                     	ds	4
  1637                           
  1638                           	psect	dataBANK1
  1639     00C3                     __pdataBANK1:
  1640     00C3                     main@F1225:
  1641     00C3                     	ds	12
  1642     00CF                     _menu:
  1643     00CF                     	ds	10
  1644     00D9                     main@F1223:
  1645     00D9                     	ds	3
  1646                           
  1647                           	psect	inittext
  1648     08FA                     init_fetch0:	
  1649                           ;	Called with low address in FSR and high address in W
  1650                           
  1651     08FA  087E               	movf	btemp,w
  1652     08FB  008A               	movwf	10
  1653     08FC  087F               	movf	btemp+1,w
  1654     08FD  0082               	movwf	2
  1655     08FE                     init_ram0:	
  1656                           ;Called with:
  1657                           ;	high address of idata address in btemp 
  1658                           ;	low address of idata address in btemp+1 
  1659                           ;	low address of data in FSR
  1660                           ;	high address + 1 of data in btemp-1
  1661                           
  1662     08FE  120A  158A  20FA  120A  158A  	fcall	init_fetch0
  1663     0903  0080               	movwf	0
  1664     0904  0A84               	incf	4,f
  1665     0905  0804               	movf	4,w
  1666     0906  067D               	xorwf	btemp+-1,w
  1667     0907  1903               	btfsc	3,2
  1668     0908  3400               	retlw	0
  1669     0909  0AFF               	incf	btemp+1,f
  1670     090A  1903               	btfsc	3,2
  1671     090B  0AFE               	incf	btemp,f
  1672     090C  28FE               	goto	init_ram0
  1673                           
  1674                           	psect	clrtext
  1675     10D4                     clear_ram0:	
  1676                           ;	Called with FSR containing the base address, and
  1677                           ;	W with the last address+1
  1678                           
  1679     10D4  0064               	clrwdt	;clear the watchdog before getting into this loop
  1680     10D5                     clrloop0:
  1681     10D5  0180               	clrf	0	;clear RAM location pointed to by FSR
  1682     10D6  0A84               	incf	4,f	;increment pointer
  1683     10D7  0604               	xorwf	4,w	;XOR with final address
  1684     10D8  1903               	btfsc	3,2	;have we reached the end yet?
  1685     10D9  3400               	retlw	0	;all done for this memory range, return
  1686     10DA  0604               	xorwf	4,w	;XOR again to restore value
  1687     10DB  28D5               	goto	clrloop0	;do the next byte
  1688                           
  1689                           	psect	cstackBANK3
  1690     0190                     __pcstackBANK3:
  1691     0190                     main@gear:
  1692                           
  1693                           ; 12 bytes @ 0x0
  1694     0190                     	ds	12
  1695     019C                     main@menu_pos:
  1696                           
  1697                           ; 1 bytes @ 0xC
  1698     019C                     	ds	1
  1699     019D                     main@event:
  1700                           
  1701                           ; 3 bytes @ 0xD
  1702     019D                     	ds	3
  1703     01A0                     main@gr:
  1704                           
  1705                           ; 1 bytes @ 0x10
  1706     01A0                     	ds	1
  1707     01A1                     main@reset_flag:
  1708                           
  1709                           ; 1 bytes @ 0x11
  1710     01A1                     	ds	1
  1711     01A2                     main@speed:
  1712                           
  1713                           ; 1 bytes @ 0x12
  1714     01A2                     	ds	1
  1715     01A3                     main@control_flag:
  1716                           
  1717                           ; 1 bytes @ 0x13
  1718     01A3                     	ds	1
  1719     01A4                     main@key:
  1720                           
  1721                           ; 1 bytes @ 0x14
  1722     01A4                     	ds	1
  1723                           
  1724                           	psect	cstackCOMMON
  1725     0070                     __pcstackCOMMON:
  1726     0070                     ?_read_ds1307:
  1727     0070                     ?_ext_eeprom_read:	
  1728                           ; 1 bytes @ 0x0
  1729                           
  1730     0070                     ?_putchar:	
  1731                           ; 1 bytes @ 0x0
  1732                           
  1733     0070                     ?_i2c_start:	
  1734                           ; 1 bytes @ 0x0
  1735                           
  1736     0070                     ?_i2c_rep_start:	
  1737                           ; 1 bytes @ 0x0
  1738                           
  1739     0070                     ?_i2c_read:	
  1740                           ; 1 bytes @ 0x0
  1741                           
  1742     0070                     ?_i2c_stop:	
  1743                           ; 1 bytes @ 0x0
  1744                           
  1745     0070                     ?_init_timer2:	
  1746                           ; 1 bytes @ 0x0
  1747                           
  1748     0070                     ?_init_adc:	
  1749                           ; 1 bytes @ 0x0
  1750                           
  1751     0070                     ?_get_time:	
  1752                           ; 1 bytes @ 0x0
  1753                           
  1754     0070                     ?_display_time:	
  1755                           ; 1 bytes @ 0x0
  1756                           
  1757     0070                     ?_log_event:	
  1758                           ; 1 bytes @ 0x0
  1759                           
  1760     0070                     ?_clear_screen:	
  1761                           ; 1 bytes @ 0x0
  1762                           
  1763     0070                     ?_clear_log:	
  1764                           ; 1 bytes @ 0x0
  1765                           
  1766     0070                     ?_download_log:	
  1767                           ; 1 bytes @ 0x0
  1768                           
  1769     0070                     ?_init_display_controller:	
  1770                           ; 1 bytes @ 0x0
  1771                           
  1772     0070                     ?_init_clcd:	
  1773                           ; 1 bytes @ 0x0
  1774                           
  1775     0070                     ?_init_digital_keypad:	
  1776                           ; 1 bytes @ 0x0
  1777                           
  1778     0070                     ?_read_digital_keypad:	
  1779                           ; 1 bytes @ 0x0
  1780                           
  1781     0070                     ?_init_ds1307:	
  1782                           ; 1 bytes @ 0x0
  1783                           
  1784     0070                     ?_i2c_wait_for_idle:	
  1785                           ; 1 bytes @ 0x0
  1786                           
  1787     0070                     ?_isr:	
  1788                           ; 1 bytes @ 0x0
  1789                           
  1790     0070                     ?_init_config:	
  1791                           ; 1 bytes @ 0x0
  1792                           
  1793     0070                     ?_main:	
  1794                           ; 1 bytes @ 0x0
  1795                           
  1796     0070                     ?_i2c_write:	
  1797                           ; 1 bytes @ 0x0
  1798                           
  1799     0070                     ??_isr:	
  1800                           ; 2 bytes @ 0x0
  1801                           
  1802                           
  1803                           ; 1 bytes @ 0x0
  1804     0070                     	ds	2
  1805     0072                     ?_strncpy:
  1806     0072                     ?_clcd_write:	
  1807                           ; 1 bytes @ 0x2
  1808                           
  1809     0072                     ?_strcpy:	
  1810                           ; 1 bytes @ 0x2
  1811                           
  1812     0072                     ?___bmul:	
  1813                           ; 1 bytes @ 0x2
  1814                           
  1815     0072                     ?_strncmp:	
  1816                           ; 1 bytes @ 0x2
  1817                           
  1818     0072                     ?_read_adc:	
  1819                           ; 2 bytes @ 0x2
  1820                           
  1821     0072                     ?___wmul:	
  1822                           ; 2 bytes @ 0x2
  1823                           
  1824     0072                     ?___awdiv:	
  1825                           ; 2 bytes @ 0x2
  1826                           
  1827     0072                     ?___awmod:	
  1828                           ; 2 bytes @ 0x2
  1829                           
  1830     0072                     ?___lwmod:	
  1831                           ; 2 bytes @ 0x2
  1832                           
  1833     0072                     ?___lldiv:	
  1834                           ; 2 bytes @ 0x2
  1835                           
  1836     0072                     clcd_write@mode:	
  1837                           ; 4 bytes @ 0x2
  1838                           
  1839     0072                     read_digital_keypad@key:	
  1840                           ; 1 bytes @ 0x2
  1841                           
  1842     0072                     i2c_read@ack:	
  1843                           ; 1 bytes @ 0x2
  1844                           
  1845     0072                     i2c_write@data:	
  1846                           ; 1 bytes @ 0x2
  1847                           
  1848     0072                     putchar@data:	
  1849                           ; 1 bytes @ 0x2
  1850                           
  1851     0072                     ___bmul@multiplicand:	
  1852                           ; 1 bytes @ 0x2
  1853                           
  1854     0072                     strcpy@dest:	
  1855                           ; 1 bytes @ 0x2
  1856                           
  1857     0072                     strncmp@l:	
  1858                           ; 1 bytes @ 0x2
  1859                           
  1860     0072                     strncpy@d:	
  1861                           ; 1 bytes @ 0x2
  1862                           
  1863     0072                     ___wmul@multiplier:	
  1864                           ; 1 bytes @ 0x2
  1865                           
  1866     0072                     ___awdiv@divisor:	
  1867                           ; 2 bytes @ 0x2
  1868                           
  1869     0072                     ___awmod@divisor:	
  1870                           ; 2 bytes @ 0x2
  1871                           
  1872     0072                     ___lwmod@divisor:	
  1873                           ; 2 bytes @ 0x2
  1874                           
  1875     0072                     ___lldiv@divisor:	
  1876                           ; 2 bytes @ 0x2
  1877                           
  1878     0072                     ??_putchar:	
  1879                           ; 4 bytes @ 0x2
  1880                           
  1881     0072                     ??_i2c_start:	
  1882                           ; 1 bytes @ 0x2
  1883                           
  1884     0072                     ??_i2c_write:	
  1885                           ; 1 bytes @ 0x2
  1886                           
  1887     0072                     ??_i2c_rep_start:	
  1888                           ; 1 bytes @ 0x2
  1889                           
  1890     0072                     ??_i2c_read:	
  1891                           ; 1 bytes @ 0x2
  1892                           
  1893     0072                     ??_i2c_stop:	
  1894                           ; 1 bytes @ 0x2
  1895                           
  1896     0072                     ??_init_timer2:	
  1897                           ; 1 bytes @ 0x2
  1898                           
  1899     0072                     ??_init_adc:	
  1900                           ; 1 bytes @ 0x2
  1901                           
  1902     0072                     ??_init_digital_keypad:	
  1903                           ; 1 bytes @ 0x2
  1904                           
  1905     0072                     ??_read_digital_keypad:	
  1906                           ; 1 bytes @ 0x2
  1907                           
  1908     0072                     ??_i2c_wait_for_idle:	
  1909                           ; 1 bytes @ 0x2
  1910                           
  1911                           
  1912                           ; 1 bytes @ 0x2
  1913     0072                     	ds	1
  1914     0073                     ?_puts:
  1915     0073                     ?_write_ds1307:	
  1916                           ; 1 bytes @ 0x3
  1917                           
  1918     0073                     ?_ext_eeprom_write:	
  1919                           ; 1 bytes @ 0x3
  1920                           
  1921     0073                     write_ds1307@data:	
  1922                           ; 1 bytes @ 0x3
  1923                           
  1924     0073                     ext_eeprom_write@data:	
  1925                           ; 1 bytes @ 0x3
  1926                           
  1927     0073                     i2c_read@data:	
  1928                           ; 1 bytes @ 0x3
  1929                           
  1930     0073                     ___bmul@product:	
  1931                           ; 1 bytes @ 0x3
  1932                           
  1933     0073                     strncmp@r:	
  1934                           ; 1 bytes @ 0x3
  1935                           
  1936     0073                     puts@s:	
  1937                           ; 1 bytes @ 0x3
  1938                           
  1939     0073                     strcpy@src:	
  1940                           ; 2 bytes @ 0x3
  1941                           
  1942     0073                     strncpy@s:	
  1943                           ; 2 bytes @ 0x3
  1944                           
  1945     0073                     ??_clcd_write:	
  1946                           ; 2 bytes @ 0x3
  1947                           
  1948     0073                     ??___bmul:	
  1949                           ; 1 bytes @ 0x3
  1950                           
  1951                           
  1952                           ; 1 bytes @ 0x3
  1953     0073                     	ds	1
  1954     0074                     read_ds1307@addr:
  1955     0074                     write_ds1307@addr:	
  1956                           ; 1 bytes @ 0x4
  1957                           
  1958     0074                     ext_eeprom_read@memory_loc:	
  1959                           ; 1 bytes @ 0x4
  1960                           
  1961     0074                     ___bmul@multiplier:	
  1962                           ; 1 bytes @ 0x4
  1963                           
  1964     0074                     read_adc@adc_reg_val:	
  1965                           ; 1 bytes @ 0x4
  1966                           
  1967     0074                     ___wmul@multiplicand:	
  1968                           ; 2 bytes @ 0x4
  1969                           
  1970     0074                     ___awdiv@dividend:	
  1971                           ; 2 bytes @ 0x4
  1972                           
  1973     0074                     ___awmod@dividend:	
  1974                           ; 2 bytes @ 0x4
  1975                           
  1976     0074                     ___lwmod@dividend:	
  1977                           ; 2 bytes @ 0x4
  1978                           
  1979     0074                     strncmp@n:	
  1980                           ; 2 bytes @ 0x4
  1981                           
  1982     0074                     ??_read_ds1307:	
  1983                           ; 2 bytes @ 0x4
  1984                           
  1985     0074                     ??_ext_eeprom_read:	
  1986                           ; 1 bytes @ 0x4
  1987                           
  1988     0074                     ??_write_ds1307:	
  1989                           ; 1 bytes @ 0x4
  1990                           
  1991     0074                     ??_read_adc:	
  1992                           ; 1 bytes @ 0x4
  1993                           
  1994     0074                     ??_ext_eeprom_write:	
  1995                           ; 1 bytes @ 0x4
  1996                           
  1997                           
  1998                           ; 1 bytes @ 0x4
  1999     0074                     	ds	1
  2000     0075                     clcd_write@byte:
  2001     0075                     read_ds1307@data:	
  2002                           ; 1 bytes @ 0x5
  2003                           
  2004     0075                     ext_eeprom_read@received_data:	
  2005                           ; 1 bytes @ 0x5
  2006                           
  2007     0075                     strncpy@n:	
  2008                           ; 1 bytes @ 0x5
  2009                           
  2010     0075                     ??_puts:	
  2011                           ; 2 bytes @ 0x5
  2012                           
  2013     0075                     ??_strcpy:	
  2014                           ; 1 bytes @ 0x5
  2015                           
  2016                           
  2017                           ; 1 bytes @ 0x5
  2018     0075                     	ds	1
  2019     0076                     ?_clcd_print:
  2020     0076                     ?___lwdiv:	
  2021                           ; 1 bytes @ 0x6
  2022                           
  2023     0076                     init_ds1307@dummy:	
  2024                           ; 2 bytes @ 0x6
  2025                           
  2026     0076                     ext_eeprom_write@memory_loc:	
  2027                           ; 1 bytes @ 0x6
  2028                           
  2029     0076                     ___awdiv@counter:	
  2030                           ; 1 bytes @ 0x6
  2031                           
  2032     0076                     ___awmod@counter:	
  2033                           ; 1 bytes @ 0x6
  2034                           
  2035     0076                     ___lwmod@counter:	
  2036                           ; 1 bytes @ 0x6
  2037                           
  2038     0076                     clcd_print@str:	
  2039                           ; 1 bytes @ 0x6
  2040                           
  2041     0076                     ___wmul@product:	
  2042                           ; 2 bytes @ 0x6
  2043                           
  2044     0076                     ___lwdiv@divisor:	
  2045                           ; 2 bytes @ 0x6
  2046                           
  2047     0076                     ___lldiv@dividend:	
  2048                           ; 2 bytes @ 0x6
  2049                           
  2050     0076                     ??_strncmp:	
  2051                           ; 4 bytes @ 0x6
  2052                           
  2053     0076                     ??_get_time:	
  2054                           ; 1 bytes @ 0x6
  2055                           
  2056     0076                     ??_clear_screen:	
  2057                           ; 1 bytes @ 0x6
  2058                           
  2059     0076                     ??_download_log:	
  2060                           ; 1 bytes @ 0x6
  2061                           
  2062     0076                     ??_init_display_controller:	
  2063                           ; 1 bytes @ 0x6
  2064                           
  2065     0076                     ??_init_ds1307:	
  2066                           ; 1 bytes @ 0x6
  2067                           
  2068     0076                     ??___wmul:	
  2069                           ; 1 bytes @ 0x6
  2070                           
  2071     0076                     ??___awdiv:	
  2072                           ; 1 bytes @ 0x6
  2073                           
  2074     0076                     ??___awmod:	
  2075                           ; 1 bytes @ 0x6
  2076                           
  2077     0076                     ??___lwmod:	
  2078                           ; 1 bytes @ 0x6
  2079                           
  2080                           
  2081                           ; 1 bytes @ 0x6
  2082     0076                     	ds	1
  2083     0077                     ?_ext_eeprom_str_write:
  2084     0077                     ___awdiv@sign:	
  2085                           ; 1 bytes @ 0x7
  2086                           
  2087     0077                     ___awmod@sign:	
  2088                           ; 1 bytes @ 0x7
  2089                           
  2090     0077                     strcpy@d:	
  2091                           ; 1 bytes @ 0x7
  2092                           
  2093     0077                     ext_eeprom_str_write@data:	
  2094                           ; 1 bytes @ 0x7
  2095                           
  2096     0077                     ??_strncpy:	
  2097                           ; 2 bytes @ 0x7
  2098                           
  2099                           
  2100                           ; 1 bytes @ 0x7
  2101     0077                     	ds	1
  2102     0078                     clcd_print@addr:
  2103     0078                     ___awdiv@quotient:	
  2104                           ; 1 bytes @ 0x8
  2105                           
  2106     0078                     ___lwdiv@dividend:	
  2107                           ; 2 bytes @ 0x8
  2108                           
  2109     0078                     ??_init_clcd:	
  2110                           ; 2 bytes @ 0x8
  2111                           
  2112                           
  2113                           ; 1 bytes @ 0x8
  2114     0078                     	ds	1
  2115     0079                     clear_log@reset_memory:
  2116     0079                     ext_eeprom_str_write@memory_loc:	
  2117                           ; 1 bytes @ 0x9
  2118                           
  2119     0079                     strncpy@cp:	
  2120                           ; 1 bytes @ 0x9
  2121                           
  2122     0079                     ??_clcd_print:	
  2123                           ; 1 bytes @ 0x9
  2124                           
  2125     0079                     ??_ext_eeprom_str_write:	
  2126                           ; 1 bytes @ 0x9
  2127                           
  2128     0079                     ??_clear_log:	
  2129                           ; 1 bytes @ 0x9
  2130                           
  2131                           
  2132                           ; 1 bytes @ 0x9
  2133     0079                     	ds	1
  2134     007A                     ??_clcd_putch:
  2135     007A                     ??_display_time:	
  2136                           ; 1 bytes @ 0xA
  2137                           
  2138     007A                     ??_log_event:	
  2139                           ; 1 bytes @ 0xA
  2140                           
  2141     007A                     ??_init_config:	
  2142                           ; 1 bytes @ 0xA
  2143                           
  2144     007A                     ??___lwdiv:	
  2145                           ; 1 bytes @ 0xA
  2146                           
  2147                           
  2148                           	psect	cstackBANK0
  2149     0020                     __pcstackBANK0:	
  2150                           ; 1 bytes @ 0xA
  2151                           
  2152     0020                     log_event@addr:
  2153     0020                     ___lwdiv@counter:	
  2154                           ; 1 bytes @ 0x0
  2155                           
  2156     0020                     download_log@log:	
  2157                           ; 1 bytes @ 0x0
  2158                           
  2159     0020                     ??___lldiv:	
  2160                           ; 11 bytes @ 0x0
  2161                           
  2162                           
  2163                           ; 1 bytes @ 0x0
  2164     0020                     	ds	1
  2165     0021                     ?_log_car_event:
  2166     0021                     log_car_event@event:	
  2167                           ; 1 bytes @ 0x1
  2168                           
  2169     0021                     ___lwdiv@quotient:	
  2170                           ; 2 bytes @ 0x1
  2171                           
  2172     0021                     ___lldiv@quotient:	
  2173                           ; 2 bytes @ 0x1
  2174                           
  2175                           
  2176                           ; 4 bytes @ 0x1
  2177     0021                     	ds	2
  2178     0023                     ?_clcd_putch:
  2179     0023                     log_car_event@speed:	
  2180                           ; 1 bytes @ 0x3
  2181                           
  2182     0023                     clcd_putch@addr:	
  2183                           ; 1 bytes @ 0x3
  2184                           
  2185                           
  2186                           ; 1 bytes @ 0x3
  2187     0023                     	ds	1
  2188     0024                     clcd_putch@data:
  2189     0024                     ??_log_car_event:	
  2190                           ; 1 bytes @ 0x4
  2191                           
  2192                           
  2193                           ; 1 bytes @ 0x4
  2194     0024                     	ds	1
  2195     0025                     ?_display_dashboard:
  2196     0025                     ?_login:	
  2197                           ; 1 bytes @ 0x5
  2198                           
  2199     0025                     ?_login_menu:	
  2200                           ; 1 bytes @ 0x5
  2201                           
  2202     0025                     ?_view_log:	
  2203                           ; 1 bytes @ 0x5
  2204                           
  2205     0025                     ?_change_password:	
  2206                           ; 1 bytes @ 0x5
  2207                           
  2208     0025                     ?_change_time:	
  2209                           ; 1 bytes @ 0x5
  2210                           
  2211     0025                     display_dashboard@event:	
  2212                           ; 1 bytes @ 0x5
  2213                           
  2214     0025                     login@reset_flag:	
  2215                           ; 1 bytes @ 0x5
  2216                           
  2217     0025                     login_menu@reset_flag:	
  2218                           ; 1 bytes @ 0x5
  2219                           
  2220     0025                     view_log@reset_index:	
  2221                           ; 1 bytes @ 0x5
  2222                           
  2223     0025                     change_password@reset_pwd:	
  2224                           ; 1 bytes @ 0x5
  2225                           
  2226     0025                     change_time@reset_time:	
  2227                           ; 1 bytes @ 0x5
  2228                           
  2229     0025                     ___lldiv@counter:	
  2230                           ; 1 bytes @ 0x5
  2231                           
  2232                           
  2233                           ; 1 bytes @ 0x5
  2234     0025                     	ds	1
  2235     0026                     ?_init_uart:
  2236     0026                     ?_init_i2c:	
  2237                           ; 1 bytes @ 0x6
  2238                           
  2239     0026                     display_dashboard@speed:	
  2240                           ; 1 bytes @ 0x6
  2241                           
  2242     0026                     init_i2c@baud:	
  2243                           ; 1 bytes @ 0x6
  2244                           
  2245     0026                     init_uart@baud:	
  2246                           ; 4 bytes @ 0x6
  2247                           
  2248     0026                     ??_login:	
  2249                           ; 4 bytes @ 0x6
  2250                           
  2251     0026                     ??_login_menu:	
  2252                           ; 1 bytes @ 0x6
  2253                           
  2254     0026                     ??_view_log:	
  2255                           ; 1 bytes @ 0x6
  2256                           
  2257     0026                     ??_change_password:	
  2258                           ; 1 bytes @ 0x6
  2259                           
  2260     0026                     ??_change_time:	
  2261                           ; 1 bytes @ 0x6
  2262                           
  2263                           
  2264                           ; 1 bytes @ 0x6
  2265     0026                     	ds	1
  2266     0027                     ??_display_dashboard:
  2267                           
  2268                           ; 1 bytes @ 0x7
  2269     0027                     	ds	1
  2270     0028                     login_menu@key:
  2271     0028                     view_log@log:	
  2272                           ; 1 bytes @ 0x8
  2273                           
  2274                           
  2275                           ; 11 bytes @ 0x8
  2276     0028                     	ds	1
  2277     0029                     change_password@key:
  2278     0029                     change_time@key:	
  2279                           ; 1 bytes @ 0x9
  2280                           
  2281     0029                     login@spassword:	
  2282                           ; 1 bytes @ 0x9
  2283                           
  2284                           
  2285                           ; 4 bytes @ 0x9
  2286     0029                     	ds	1
  2287     002A                     change_time@buffer:
  2288     002A                     ??_init_uart:	
  2289                           ; 1 bytes @ 0xA
  2290                           
  2291     002A                     ??_init_i2c:	
  2292                           ; 1 bytes @ 0xA
  2293                           
  2294                           
  2295                           ; 1 bytes @ 0xA
  2296     002A                     	ds	1
  2297     002B                     download_log@add:
  2298                           
  2299                           ; 1 bytes @ 0xB
  2300     002B                     	ds	1
  2301     002C                     download_log@position:
  2302                           
  2303                           ; 2 bytes @ 0xC
  2304     002C                     	ds	1
  2305     002D                     login@key:
  2306                           
  2307                           ; 1 bytes @ 0xD
  2308     002D                     	ds	1
  2309     002E                     login@j:
  2310     002E                     download_log@index:	
  2311                           ; 2 bytes @ 0xE
  2312                           
  2313                           
  2314                           ; 2 bytes @ 0xE
  2315     002E                     	ds	2
  2316     0030                     download_log@i:
  2317                           
  2318                           ; 2 bytes @ 0x10
  2319     0030                     	ds	3
  2320     0033                     view_log@position:
  2321                           
  2322                           ; 2 bytes @ 0x13
  2323     0033                     	ds	2
  2324     0035                     view_log@add:
  2325                           
  2326                           ; 1 bytes @ 0x15
  2327     0035                     	ds	1
  2328     0036                     view_log@key:
  2329                           
  2330                           ; 1 bytes @ 0x16
  2331     0036                     	ds	1
  2332     0037                     view_log@i:
  2333                           
  2334                           ; 2 bytes @ 0x17
  2335     0037                     	ds	2
  2336     0039                     ??_main:
  2337                           
  2338                           ; 1 bytes @ 0x19
  2339     0039                     	ds	4
  2340                           
  2341                           	psect	maintext
  2342     0040                     __pmaintext:	
  2343 ;;
  2344 ;;Main: autosize = 0, tempsize = 4, incstack = 0, save=0
  2345 ;;
  2346 ;; *************** function _main *****************
  2347 ;; Defined at:
  2348 ;;		line 43 in file "main.c"
  2349 ;; Parameters:    Size  Location     Type
  2350 ;;		None
  2351 ;; Auto vars:     Size  Location     Type
  2352 ;;  gear           12    0[BANK3 ] PTR unsigned char [6]
  2353 ;;		 -> STR_46(3), STR_45(3), STR_44(3), STR_43(3), 
  2354 ;;		 -> STR_42(3), STR_41(3), 
  2355 ;;  event           3   13[BANK3 ] unsigned char [3]
  2356 ;;  key             1   20[BANK3 ] unsigned char 
  2357 ;;  control_flag    1   19[BANK3 ] unsigned char 
  2358 ;;  speed           1   18[BANK3 ] unsigned char 
  2359 ;;  reset_flag      1   17[BANK3 ] unsigned char 
  2360 ;;  gr              1   16[BANK3 ] unsigned char 
  2361 ;;  menu_pos        1   12[BANK3 ] unsigned char 
  2362 ;; Return value:  Size  Location     Type
  2363 ;;                  1    wreg      void 
  2364 ;; Registers used:
  2365 ;;		wreg, fsr0l, fsr0h, status,2, status,0, btemp+1, pclath, cstack
  2366 ;; Tracked objects:
  2367 ;;		On entry : B00/0
  2368 ;;		On exit  : 0/0
  2369 ;;		Unchanged: 0/0
  2370 ;; Data sizes:     COMMON   BANK0   BANK1   BANK3   BANK2
  2371 ;;      Params:         0       0       0       0       0
  2372 ;;      Locals:         0       0       0      21       0
  2373 ;;      Temps:          0       4       0       0       0
  2374 ;;      Totals:         0       4       0      21       0
  2375 ;;Total ram usage:       25 bytes
  2376 ;; Hardware stack levels required when called: 8
  2377 ;; This function calls:
  2378 ;;		___lwdiv
  2379 ;;		_change_password
  2380 ;;		_change_time
  2381 ;;		_clcd_print
  2382 ;;		_clcd_write
  2383 ;;		_clear_log
  2384 ;;		_clear_screen
  2385 ;;		_display_dashboard
  2386 ;;		_download_log
  2387 ;;		_ext_eeprom_str_write
  2388 ;;		_init_config
  2389 ;;		_log_car_event
  2390 ;;		_login
  2391 ;;		_login_menu
  2392 ;;		_read_adc
  2393 ;;		_read_digital_keypad
  2394 ;;		_strcpy
  2395 ;;		_view_log
  2396 ;; This function is called by:
  2397 ;;		Startup code after reset
  2398 ;; This function uses a non-reentrant model
  2399 ;;
  2400                           
  2401     0040                     _main:	
  2402                           ;psect for function _main
  2403                           
  2404     0040                     l4755:	
  2405                           ;incstack = 0
  2406                           ; Regs used in _main: [wreg-fsr0h+status,2+status,0+btemp+1+pclath+cstack]
  2407                           
  2408                           
  2409                           ;main.c: 46:     init_config();
  2410     0040  3001               	movlw	1
  2411     0041  1683               	bsf	3,5	;RP0=1, select bank3
  2412     0042  1703               	bsf	3,6	;RP1=1, select bank3
  2413     0043  00A3               	movwf	main@control_flag^(0+384)
  2414     0044                     l4757:
  2415                           
  2416                           ;main.c: 47: 
  2417     0044  1683               	bsf	3,5	;RP0=1, select bank1
  2418     0045  1303               	bcf	3,6	;RP1=0, select bank1
  2419     0046  0859               	movf	main@F1223^(0+128),w
  2420     0047  1683               	bsf	3,5	;RP0=1, select bank3
  2421     0048  1703               	bsf	3,6	;RP1=1, select bank3
  2422     0049  009D               	movwf	main@event^(0+384)
  2423     004A  1683               	bsf	3,5	;RP0=1, select bank1
  2424     004B  1303               	bcf	3,6	;RP1=0, select bank1
  2425     004C  085A               	movf	(main@F1223+1)^(0+128),w
  2426     004D  1683               	bsf	3,5	;RP0=1, select bank3
  2427     004E  1703               	bsf	3,6	;RP1=1, select bank3
  2428     004F  009E               	movwf	(main@event+1)^(0+384)
  2429     0050  1683               	bsf	3,5	;RP0=1, select bank1
  2430     0051  1303               	bcf	3,6	;RP1=0, select bank1
  2431     0052  085B               	movf	(main@F1223+2)^(0+128),w
  2432     0053  1683               	bsf	3,5	;RP0=1, select bank3
  2433     0054  1703               	bsf	3,6	;RP1=1, select bank3
  2434     0055  009F               	movwf	(main@event+2)^(0+384)
  2435     0056                     l4759:
  2436                           
  2437                           ;main.c: 50:     log_car_event(event, speed);
  2438     0056  30C3               	movlw	main@F1225& (0+255)
  2439     0057  0084               	movwf	4
  2440     0058  3090               	movlw	low main@gear
  2441     0059  1283               	bcf	3,5	;RP0=0, select bank0
  2442     005A  1303               	bcf	3,6	;RP1=0, select bank0
  2443     005B  00B9               	movwf	??_main
  2444     005C  300C               	movlw	12
  2445     005D  00BA               	movwf	??_main+1
  2446     005E                     u4730:
  2447     005E  1383               	bcf	3,7	;select IRP bank1
  2448     005F  0800               	movf	0,w
  2449     0060  00BB               	movwf	??_main+2
  2450     0061  0A04               	incf	4,w
  2451     0062  00BC               	movwf	??_main+3
  2452     0063  0839               	movf	??_main,w
  2453     0064  0084               	movwf	4
  2454     0065  1783               	bsf	3,7	;select IRP bank3
  2455     0066  083B               	movf	??_main+2,w
  2456     0067  0080               	movwf	0
  2457     0068  0A04               	incf	4,w
  2458     0069  00B9               	movwf	??_main
  2459     006A  083C               	movf	??_main+3,w
  2460     006B  0084               	movwf	4
  2461     006C  0BBA               	decfsz	??_main+1,f
  2462     006D  285E               	goto	u4730
  2463     006E                     l4761:
  2464     006E                     l4763:
  2465     006E  1683               	bsf	3,5	;RP0=1, select bank3
  2466     006F  1703               	bsf	3,6	;RP1=1, select bank3
  2467     0070  01A0               	clrf	main@gr^(0+384)
  2468     0071                     l4765:
  2469                           
  2470                           ;main.c: 54:         speed = read_adc() / 10;;main.c: 56:         if (speed > 99);main.c
      +                          : 58:             speed = 99;
  2471     0071  160A  118A  2430  120A  118A  	fcall	_init_config
  2472     0076                     l4767:
  2473                           
  2474                           ;main.c: 60: 
  2475     0076  30D4               	movlw	low (STR_47| (0+32768))
  2476     0077  00F7               	movwf	ext_eeprom_str_write@data
  2477     0078  3088               	movlw	high (STR_47| (0+32768))
  2478     0079  00F8               	movwf	ext_eeprom_str_write@data+1
  2479     007A  3000               	movlw	0
  2480     007B  160A  118A  2283  120A  118A  	fcall	_ext_eeprom_str_write
  2481     0080                     l4769:
  2482                           
  2483                           ;main.c: 62: 
  2484     0080  309D               	movlw	(low (main@event| (0+256)))& (0+255)
  2485     0081  1283               	bcf	3,5	;RP0=0, select bank0
  2486     0082  1303               	bcf	3,6	;RP1=0, select bank0
  2487     0083  00A1               	movwf	log_car_event@event
  2488     0084  3001               	movlw	1
  2489     0085  00A2               	movwf	log_car_event@event+1
  2490     0086  01A3               	clrf	log_car_event@speed
  2491     0087  160A  118A  267E  120A  118A  	fcall	_log_car_event
  2492     008C                     l4771:
  2493                           
  2494                           ;main.c: 65:             strcpy(event, "CO");;main.c: 66:             log_car_event(even
      +                          t, speed);
  2495     008C  300A               	movlw	10
  2496     008D  00F6               	movwf	___lwdiv@divisor
  2497     008E  3000               	movlw	0
  2498     008F  00F7               	movwf	___lwdiv@divisor+1
  2499     0090  160A  118A  2157  120A  118A  	fcall	_read_adc
  2500     0095  0873               	movf	?_read_adc+1,w
  2501     0096  00F9               	movwf	___lwdiv@dividend+1
  2502     0097  0872               	movf	?_read_adc,w
  2503     0098  00F8               	movwf	___lwdiv@dividend
  2504     0099  160A  118A  24ED  120A  118A  	fcall	___lwdiv
  2505     009E  0876               	movf	?___lwdiv,w
  2506     009F  1683               	bsf	3,5	;RP0=1, select bank3
  2507     00A0  1703               	bsf	3,6	;RP1=1, select bank3
  2508     00A1  00A2               	movwf	main@speed^(0+384)
  2509     00A2                     l4773:
  2510                           
  2511                           ;main.c: 68:         else if (key == 0x3D && gr < 6)
  2512     00A2  3064               	movlw	100
  2513     00A3  0222               	subwf	main@speed^(0+384),w
  2514     00A4  1C03               	skipc
  2515     00A5  28A7               	goto	u4741
  2516     00A6  28A8               	goto	u4740
  2517     00A7                     u4741:
  2518     00A7  28AA               	goto	l4777
  2519     00A8                     u4740:
  2520     00A8                     l4775:
  2521                           
  2522                           ;main.c: 69:         {;main.c: 70:             strcpy(event, gear[gr]);
  2523     00A8  3063               	movlw	99
  2524     00A9  00A2               	movwf	main@speed^(0+384)
  2525     00AA                     l4777:
  2526                           
  2527                           ;main.c: 73:         }
  2528     00AA  120A  158A  210D  120A  118A  	fcall	_read_digital_keypad
  2529     00AF  1683               	bsf	3,5	;RP0=1, select bank3
  2530     00B0  1703               	bsf	3,6	;RP1=1, select bank3
  2531     00B1  00A4               	movwf	main@key^(0+384)
  2532     00B2                     l4779:
  2533                           
  2534                           ;main.c: 75:         {
  2535     00B2  303E               	movlw	62
  2536     00B3  0624               	xorwf	main@key^(0+384),w
  2537     00B4  1D03               	btfss	3,2
  2538     00B5  28B7               	goto	u4751
  2539     00B6  28B8               	goto	u4750
  2540     00B7                     u4751:
  2541     00B7  28D5               	goto	l4783
  2542     00B8                     u4750:
  2543     00B8                     l4781:
  2544                           
  2545                           ;main.c: 76:             gr--;;main.c: 77:             strcpy(event, gear[gr]);
  2546     00B8  309D               	movlw	(low (main@event| (0+256)))& (0+255)
  2547     00B9  00F2               	movwf	strcpy@dest
  2548     00BA  30EE               	movlw	low (STR_48| (0+32768))
  2549     00BB  00F3               	movwf	strcpy@src
  2550     00BC  3088               	movlw	high (STR_48| (0+32768))
  2551     00BD  00F4               	movwf	strcpy@src+1
  2552     00BE  160A  118A  21F0  120A  118A  	fcall	_strcpy
  2553                           
  2554                           ;main.c: 78:             log_car_event(event, speed);
  2555     00C3  309D               	movlw	(low (main@event| (0+256)))& (0+255)
  2556     00C4  1283               	bcf	3,5	;RP0=0, select bank0
  2557     00C5  1303               	bcf	3,6	;RP1=0, select bank0
  2558     00C6  00A1               	movwf	log_car_event@event
  2559     00C7  3001               	movlw	1
  2560     00C8  00A2               	movwf	log_car_event@event+1
  2561     00C9  1683               	bsf	3,5	;RP0=1, select bank3
  2562     00CA  1703               	bsf	3,6	;RP1=1, select bank3
  2563     00CB  0822               	movf	main@speed^(0+384),w
  2564     00CC  1283               	bcf	3,5	;RP0=0, select bank0
  2565     00CD  1303               	bcf	3,6	;RP1=0, select bank0
  2566     00CE  00A3               	movwf	log_car_event@speed
  2567     00CF  160A  118A  267E  120A  118A  	fcall	_log_car_event
  2568                           
  2569                           ;main.c: 79:         }
  2570     00D4  2B87               	goto	l4969
  2571     00D5                     l4783:
  2572     00D5  303D               	movlw	61
  2573     00D6  0624               	xorwf	main@key^(0+384),w
  2574     00D7  1D03               	btfss	3,2
  2575     00D8  28DA               	goto	u4761
  2576     00D9  28DB               	goto	u4760
  2577     00DA                     u4761:
  2578     00DA  290C               	goto	l4793
  2579     00DB                     u4760:
  2580     00DB                     l4785:
  2581     00DB  3006               	movlw	6
  2582     00DC  0220               	subwf	main@gr^(0+384),w
  2583     00DD  1803               	skipnc
  2584     00DE  28E0               	goto	u4771
  2585     00DF  28E1               	goto	u4770
  2586     00E0                     u4771:
  2587     00E0  290C               	goto	l4793
  2588     00E1                     u4770:
  2589     00E1                     l4787:
  2590                           
  2591                           ;main.c: 81:         {;main.c: 82:             clear_screen();
  2592     00E1  309D               	movlw	(low (main@event| (0+256)))& (0+255)
  2593     00E2  00F2               	movwf	strcpy@dest
  2594     00E3  0820               	movf	main@gr^(0+384),w
  2595     00E4  1283               	bcf	3,5	;RP0=0, select bank0
  2596     00E5  1303               	bcf	3,6	;RP1=0, select bank0
  2597     00E6  00B9               	movwf	??_main
  2598     00E7  0739               	addwf	??_main,w
  2599     00E8  3E90               	addlw	(low (main@gear| (0+256)))& (0+255)
  2600     00E9  0084               	movwf	4
  2601     00EA  1783               	bsf	3,7	;select IRP bank3
  2602     00EB  0800               	movf	0,w
  2603     00EC  00F3               	movwf	strcpy@src
  2604     00ED  0A84               	incf	4,f
  2605     00EE  0800               	movf	0,w
  2606     00EF  0384               	decf	4,f
  2607     00F0  00F4               	movwf	strcpy@src+1
  2608     00F1  160A  118A  21F0  120A  118A  	fcall	_strcpy
  2609     00F6                     l4789:
  2610                           
  2611                           ;main.c: 83: 
  2612     00F6  3001               	movlw	1
  2613     00F7  1683               	bsf	3,5	;RP0=1, select bank3
  2614     00F8  1703               	bsf	3,6	;RP1=1, select bank3
  2615     00F9  07A0               	addwf	main@gr^(0+384),f
  2616     00FA                     l4791:
  2617                           
  2618                           ;main.c: 84:             clcd_print(" Enter Password ", (0x80 + 0));
  2619     00FA  309D               	movlw	(low (main@event| (0+256)))& (0+255)
  2620     00FB  1283               	bcf	3,5	;RP0=0, select bank0
  2621     00FC  1303               	bcf	3,6	;RP1=0, select bank0
  2622     00FD  00A1               	movwf	log_car_event@event
  2623     00FE  3001               	movlw	1
  2624     00FF  00A2               	movwf	log_car_event@event+1
  2625     0100  1683               	bsf	3,5	;RP0=1, select bank3
  2626     0101  1703               	bsf	3,6	;RP1=1, select bank3
  2627     0102  0822               	movf	main@speed^(0+384),w
  2628     0103  1283               	bcf	3,5	;RP0=0, select bank0
  2629     0104  1303               	bcf	3,6	;RP1=0, select bank0
  2630     0105  00A3               	movwf	log_car_event@speed
  2631     0106  160A  118A  267E  120A  118A  	fcall	_log_car_event
  2632                           
  2633                           ;main.c: 85: 
  2634     010B  2B87               	goto	l4969
  2635     010C                     l4793:
  2636     010C  303B               	movlw	59
  2637     010D  0624               	xorwf	main@key^(0+384),w
  2638     010E  1D03               	btfss	3,2
  2639     010F  2911               	goto	u4781
  2640     0110  2912               	goto	u4780
  2641     0111                     u4781:
  2642     0111  292F               	goto	l4803
  2643     0112                     u4780:
  2644     0112                     l4795:
  2645     0112  0820               	movf	main@gr^(0+384),w
  2646     0113  1903               	btfsc	3,2
  2647     0114  2916               	goto	u4791
  2648     0115  2917               	goto	u4790
  2649     0116                     u4791:
  2650     0116  292F               	goto	l4803
  2651     0117                     u4790:
  2652     0117                     l4797:
  2653                           
  2654                           ;main.c: 87: ;main.c: 88:             clcd_write(0x0F, 0);
  2655     0117  3001               	movlw	1
  2656     0118  02A0               	subwf	main@gr^(0+384),f
  2657     0119                     l4799:
  2658                           
  2659                           ;main.c: 89:             _delay((unsigned long)((100)*(20000000/4000000.0)));
  2660     0119  309D               	movlw	(low (main@event| (0+256)))& (0+255)
  2661     011A  00F2               	movwf	strcpy@dest
  2662     011B  0820               	movf	main@gr^(0+384),w
  2663     011C  1283               	bcf	3,5	;RP0=0, select bank0
  2664     011D  1303               	bcf	3,6	;RP1=0, select bank0
  2665     011E  00B9               	movwf	??_main
  2666     011F  0739               	addwf	??_main,w
  2667     0120  3E90               	addlw	(low (main@gear| (0+256)))& (0+255)
  2668     0121  0084               	movwf	4
  2669     0122  1783               	bsf	3,7	;select IRP bank3
  2670     0123  0800               	movf	0,w
  2671     0124  00F3               	movwf	strcpy@src
  2672     0125  0A84               	incf	4,f
  2673     0126  0800               	movf	0,w
  2674     0127  0384               	decf	4,f
  2675     0128  00F4               	movwf	strcpy@src+1
  2676     0129  160A  118A  21F0  120A  118A  	fcall	_strcpy
  2677     012E  28FA               	goto	l4791
  2678     012F                     l4803:
  2679     012F  3037               	movlw	55
  2680     0130  0624               	xorwf	main@key^(0+384),w
  2681     0131  1903               	btfsc	3,2
  2682     0132  2934               	goto	u4801
  2683     0133  2935               	goto	u4800
  2684     0134                     u4801:
  2685     0134  293B               	goto	l4807
  2686     0135                     u4800:
  2687     0135                     l4805:
  2688     0135  302F               	movlw	47
  2689     0136  0624               	xorwf	main@key^(0+384),w
  2690     0137  1D03               	btfss	3,2
  2691     0138  293A               	goto	u4811
  2692     0139  293B               	goto	u4810
  2693     013A                     u4811:
  2694     013A  296F               	goto	l4825
  2695     013B                     u4810:
  2696     013B                     l4807:
  2697     013B  0323               	decf	main@control_flag^(0+384),w
  2698     013C  1D03               	btfss	3,2
  2699     013D  293F               	goto	u4821
  2700     013E  2940               	goto	u4820
  2701     013F                     u4821:
  2702     013F  296F               	goto	l4825
  2703     0140                     u4820:
  2704     0140                     l4809:
  2705                           
  2706                           ;main.c: 93:             reset_flag = 0x60;;main.c: 94: 
  2707     0140  160A  118A  2134  120A  118A  	fcall	_clear_screen
  2708     0145                     l4811:
  2709                           
  2710                           ;main.c: 96:         }
  2711     0145  309C               	movlw	low (STR_13| (0+32768))
  2712     0146  00F6               	movwf	clcd_print@str
  2713     0147  3087               	movlw	high (STR_13| (0+32768))
  2714     0148  00F7               	movwf	clcd_print@str+1
  2715     0149  3080               	movlw	128
  2716     014A  00F8               	movwf	clcd_print@addr
  2717     014B  160A  118A  232F  120A  118A  	fcall	_clcd_print
  2718     0150                     l4813:
  2719                           
  2720                           ;main.c: 98:         {
  2721     0150  01F2               	clrf	clcd_write@mode
  2722     0151  30C6               	movlw	198
  2723     0152  160A  118A  21AF  120A  118A  	fcall	_clcd_write
  2724     0157                     l4815:
  2725                           
  2726                           ;main.c: 100:             {
  2727     0157  01F2               	clrf	clcd_write@mode
  2728     0158  300F               	movlw	15
  2729     0159  160A  118A  21AF  120A  118A  	fcall	_clcd_write
  2730     015E                     l4817:
  2731                           
  2732                           ;main.c: 101:                 case 0:
  2733     015E  30A5               	movlw	165
  2734     015F  1283               	bcf	3,5	;RP0=0, select bank0
  2735     0160  1303               	bcf	3,6	;RP1=0, select bank0
  2736     0161  00B9               	movwf	??_main
  2737     0162                     u4947:
  2738     0162  0BB9               	decfsz	??_main,f
  2739     0163  2962               	goto	u4947
  2740     0164  2965               	nop2
  2741     0165                     l4819:
  2742                           
  2743                           ;main.c: 103:                     clear_screen();
  2744     0165  3002               	movlw	2
  2745     0166  1683               	bsf	3,5	;RP0=1, select bank3
  2746     0167  1703               	bsf	3,6	;RP1=1, select bank3
  2747     0168  00A3               	movwf	main@control_flag^(0+384)
  2748     0169                     l4821:
  2749                           
  2750                           ;main.c: 105:                     control_flag = 0x08;
  2751     0169  3060               	movlw	96
  2752     016A  00A1               	movwf	main@reset_flag^(0+384)
  2753     016B                     l4823:
  2754                           
  2755                           ;main.c: 107:                     break;
  2756     016B  1283               	bcf	3,5	;RP0=0, select bank0
  2757     016C  1303               	bcf	3,6	;RP1=0, select bank0
  2758     016D  1512               	bsf	18,2	;volatile
  2759                           
  2760                           ;main.c: 108: 
  2761     016E  2B87               	goto	l4969
  2762     016F                     l4825:
  2763     016F  3080               	movlw	128
  2764     0170  0624               	xorwf	main@key^(0+384),w
  2765     0171  1D03               	btfss	3,2
  2766     0172  2974               	goto	u4831
  2767     0173  2975               	goto	u4830
  2768     0174                     u4831:
  2769     0174  2A1D               	goto	l4881
  2770     0175                     u4830:
  2771     0175                     l4827:
  2772     0175  3003               	movlw	3
  2773     0176  0623               	xorwf	main@control_flag^(0+384),w
  2774     0177  1D03               	btfss	3,2
  2775     0178  297A               	goto	u4841
  2776     0179  297B               	goto	u4840
  2777     017A                     u4841:
  2778     017A  2A1D               	goto	l4881
  2779     017B                     u4840:
  2780     017B  2A0C               	goto	l4879
  2781     017C                     l4831:
  2782                           
  2783                           ;main.c: 115: 
  2784     017C  160A  118A  2134  120A  118A  	fcall	_clear_screen
  2785     0181                     l4833:
  2786                           
  2787                           ;main.c: 116:                 case 2:
  2788     0181  3069               	movlw	low (STR_50| (0+32768))
  2789     0182  00F6               	movwf	clcd_print@str
  2790     0183  3087               	movlw	high (STR_50| (0+32768))
  2791     0184  00F7               	movwf	clcd_print@str+1
  2792     0185  3080               	movlw	128
  2793     0186  00F8               	movwf	clcd_print@addr
  2794     0187  160A  118A  232F  120A  118A  	fcall	_clcd_print
  2795     018C                     l4835:
  2796                           
  2797                           ;main.c: 117: 
  2798     018C  3008               	movlw	8
  2799     018D  1683               	bsf	3,5	;RP0=1, select bank3
  2800     018E  1703               	bsf	3,6	;RP1=1, select bank3
  2801     018F  00A3               	movwf	main@control_flag^(0+384)
  2802     0190                     l4837:
  2803                           
  2804                           ;main.c: 118:                     clear_screen();
  2805     0190  3020               	movlw	32
  2806     0191  00A1               	movwf	main@reset_flag^(0+384)
  2807                           
  2808                           ;main.c: 119:                     log_car_event("DL", speed);
  2809     0192  2B87               	goto	l4969
  2810     0193                     l4839:
  2811                           
  2812                           ;main.c: 123:                     _delay((unsigned long)((2000)*(20000000/4000.0)));
  2813     0193  160A  118A  2134  120A  118A  	fcall	_clear_screen
  2814     0198                     l4841:
  2815                           
  2816                           ;main.c: 124:                     control_flag = 0x03;
  2817     0198  3009               	movlw	9
  2818     0199  1683               	bsf	3,5	;RP0=1, select bank3
  2819     019A  1703               	bsf	3,6	;RP1=1, select bank3
  2820     019B  00A3               	movwf	main@control_flag^(0+384)
  2821     019C                     l4843:
  2822                           
  2823                           ;main.c: 125:                     reset_flag = 0x50;
  2824     019C  3040               	movlw	64
  2825     019D  00A1               	movwf	main@reset_flag^(0+384)
  2826                           
  2827                           ;main.c: 126:                     break;
  2828     019E  2B87               	goto	l4969
  2829     019F                     l4845:
  2830                           
  2831                           ;main.c: 130:                     clear_screen();
  2832     019F  160A  118A  2134  120A  118A  	fcall	_clear_screen
  2833     01A4                     l4847:
  2834                           
  2835                           ;main.c: 131:                     control_flag = 0x11;
  2836     01A4  30E8               	movlw	low (STR_51| (0+32768))
  2837     01A5  1283               	bcf	3,5	;RP0=0, select bank0
  2838     01A6  1303               	bcf	3,6	;RP1=0, select bank0
  2839     01A7  00A1               	movwf	log_car_event@event
  2840     01A8  3088               	movlw	high (STR_51| (0+32768))
  2841     01A9  00A2               	movwf	log_car_event@event+1
  2842     01AA  1683               	bsf	3,5	;RP0=1, select bank3
  2843     01AB  1703               	bsf	3,6	;RP1=1, select bank3
  2844     01AC  0822               	movf	main@speed^(0+384),w
  2845     01AD  1283               	bcf	3,5	;RP0=0, select bank0
  2846     01AE  1303               	bcf	3,6	;RP1=0, select bank0
  2847     01AF  00A3               	movwf	log_car_event@speed
  2848     01B0  160A  118A  267E  120A  118A  	fcall	_log_car_event
  2849     01B5                     l4849:
  2850                           
  2851                           ;main.c: 132:                     reset_flag = 0x60;
  2852     01B5  3033               	movlw	low (STR_52| (0+32768))
  2853     01B6  00F6               	movwf	clcd_print@str
  2854     01B7  3087               	movlw	high (STR_52| (0+32768))
  2855     01B8  00F7               	movwf	clcd_print@str+1
  2856     01B9  3080               	movlw	128
  2857     01BA  00F8               	movwf	clcd_print@addr
  2858     01BB  160A  118A  232F  120A  118A  	fcall	_clcd_print
  2859     01C0                     l4851:
  2860                           
  2861                           ;main.c: 133:                     TMR2ON = 1;
  2862     01C0  3020               	movlw	low (STR_53| (0+32768))
  2863     01C1  00F6               	movwf	clcd_print@str
  2864     01C2  3087               	movlw	high (STR_53| (0+32768))
  2865     01C3  00F7               	movwf	clcd_print@str+1
  2866     01C4  30C0               	movlw	192
  2867     01C5  00F8               	movwf	clcd_print@addr
  2868     01C6  160A  118A  232F  120A  118A  	fcall	_clcd_print
  2869     01CB                     l4853:
  2870                           
  2871                           ;main.c: 134:                     break;
  2872     01CB  120A  158A  2250  120A  118A  	fcall	_download_log
  2873     01D0                     l4855:
  2874                           
  2875                           ;main.c: 135: 
  2876     01D0  3033               	movlw	51
  2877     01D1  1283               	bcf	3,5	;RP0=0, select bank0
  2878     01D2  1303               	bcf	3,6	;RP1=0, select bank0
  2879     01D3  00BB               	movwf	??_main+2
  2880     01D4  30BB               	movlw	187
  2881     01D5  00BA               	movwf	??_main+1
  2882     01D6  30DF               	movlw	223
  2883     01D7  00B9               	movwf	??_main
  2884     01D8                     u4957:
  2885     01D8  0BB9               	decfsz	??_main,f
  2886     01D9  29D8               	goto	u4957
  2887     01DA  0BBA               	decfsz	??_main+1,f
  2888     01DB  29D8               	goto	u4957
  2889     01DC  0BBB               	decfsz	??_main+2,f
  2890     01DD  29D8               	goto	u4957
  2891     01DE                     l4857:
  2892                           
  2893                           ;main.c: 136:                 case 4:
  2894     01DE  3003               	movlw	3
  2895     01DF  1683               	bsf	3,5	;RP0=1, select bank3
  2896     01E0  1703               	bsf	3,6	;RP1=1, select bank3
  2897     01E1  00A3               	movwf	main@control_flag^(0+384)
  2898     01E2                     l4859:
  2899                           
  2900                           ;main.c: 137: 
  2901     01E2  3050               	movlw	80
  2902     01E3  00A1               	movwf	main@reset_flag^(0+384)
  2903                           
  2904                           ;main.c: 138:                     clear_screen();
  2905     01E4  2B87               	goto	l4969
  2906     01E5                     l4861:
  2907                           
  2908                           ;main.c: 142:                     break;
  2909     01E5  160A  118A  2134  120A  118A  	fcall	_clear_screen
  2910     01EA                     l4863:
  2911                           
  2912                           ;main.c: 143:             }
  2913     01EA  3011               	movlw	17
  2914     01EB  1683               	bsf	3,5	;RP0=1, select bank3
  2915     01EC  1703               	bsf	3,6	;RP1=1, select bank3
  2916     01ED  00A3               	movwf	main@control_flag^(0+384)
  2917     01EE  2969               	goto	l4821
  2918     01EF                     l4869:
  2919                           
  2920                           ;main.c: 150:         else if (key == 0x80 && control_flag == 0x11)
  2921     01EF  160A  118A  2134  120A  118A  	fcall	_clear_screen
  2922     01F4                     l4871:
  2923                           
  2924                           ;main.c: 151:         {
  2925     01F4  30F7               	movlw	low (STR_54| (0+32768))
  2926     01F5  1283               	bcf	3,5	;RP0=0, select bank0
  2927     01F6  1303               	bcf	3,6	;RP1=0, select bank0
  2928     01F7  00A1               	movwf	log_car_event@event
  2929     01F8  3088               	movlw	high (STR_54| (0+32768))
  2930     01F9  00A2               	movwf	log_car_event@event+1
  2931     01FA  1683               	bsf	3,5	;RP0=1, select bank3
  2932     01FB  1703               	bsf	3,6	;RP1=1, select bank3
  2933     01FC  0822               	movf	main@speed^(0+384),w
  2934     01FD  1283               	bcf	3,5	;RP0=0, select bank0
  2935     01FE  1303               	bcf	3,6	;RP1=0, select bank0
  2936     01FF  00A3               	movwf	log_car_event@speed
  2937     0200  160A  118A  267E  120A  118A  	fcall	_log_car_event
  2938     0205                     l4873:
  2939                           
  2940                           ;main.c: 152:             control_flag = 0x03;
  2941     0205  3012               	movlw	18
  2942     0206  1683               	bsf	3,5	;RP0=1, select bank3
  2943     0207  1703               	bsf	3,6	;RP1=1, select bank3
  2944     0208  00A3               	movwf	main@control_flag^(0+384)
  2945     0209                     l4875:
  2946                           
  2947                           ;main.c: 153:             clear_screen();
  2948     0209  3030               	movlw	48
  2949     020A  00A1               	movwf	main@reset_flag^(0+384)
  2950                           
  2951                           ;main.c: 154:         }
  2952     020B  2B87               	goto	l4969
  2953     020C                     l4879:
  2954     020C  081C               	movf	main@menu_pos^(0+384),w
  2955                           
  2956                           ; Switch size 1, requested type "simple"
  2957                           ; Number of cases is 5, Range of values is 0 to 4
  2958                           ; switch strategies available:
  2959                           ; Name         Instructions Cycles
  2960                           ; simple_byte           16     9 (average)
  2961                           ; direct_byte           23     8 (fixed)
  2962                           ; jumptable            260     6 (fixed)
  2963                           ;	Chosen strategy is simple_byte
  2964     020D  3A00               	xorlw	0	; case 0
  2965     020E  1903               	skipnz
  2966     020F  297C               	goto	l4831
  2967     0210  3A01               	xorlw	1	; case 1
  2968     0211  1903               	skipnz
  2969     0212  2993               	goto	l4839
  2970     0213  3A03               	xorlw	3	; case 2
  2971     0214  1903               	skipnz
  2972     0215  299F               	goto	l4845
  2973     0216  3A01               	xorlw	1	; case 3
  2974     0217  1903               	skipnz
  2975     0218  29E5               	goto	l4861
  2976     0219  3A07               	xorlw	7	; case 4
  2977     021A  1903               	skipnz
  2978     021B  29EF               	goto	l4869
  2979     021C  2B87               	goto	l4969
  2980     021D                     l4881:
  2981     021D  3080               	movlw	128
  2982     021E  0624               	xorwf	main@key^(0+384),w
  2983     021F  1D03               	btfss	3,2
  2984     0220  2A22               	goto	u4851
  2985     0221  2A23               	goto	u4850
  2986     0222                     u4851:
  2987     0222  2A31               	goto	l4889
  2988     0223                     u4850:
  2989     0223                     l4883:
  2990     0223  3008               	movlw	8
  2991     0224  0623               	xorwf	main@control_flag^(0+384),w
  2992     0225  1D03               	btfss	3,2
  2993     0226  2A28               	goto	u4861
  2994     0227  2A29               	goto	u4860
  2995     0228                     u4861:
  2996     0228  2A31               	goto	l4889
  2997     0229                     u4860:
  2998     0229                     l4885:
  2999                           
  3000                           ;main.c: 158:             clear_screen();;main.c: 159:         }
  3001     0229  3003               	movlw	3
  3002     022A  00A3               	movwf	main@control_flag^(0+384)
  3003     022B                     l4887:
  3004                           
  3005                           ;main.c: 160: 
  3006     022B  160A  118A  2134  120A  118A  	fcall	_clear_screen
  3007                           
  3008                           ;main.c: 161: 
  3009     0230  2B87               	goto	l4969
  3010     0231                     l4889:
  3011     0231  3080               	movlw	128
  3012     0232  0624               	xorwf	main@key^(0+384),w
  3013     0233  1D03               	btfss	3,2
  3014     0234  2A36               	goto	u4871
  3015     0235  2A37               	goto	u4870
  3016     0236                     u4871:
  3017     0236  2A3E               	goto	l4897
  3018     0237                     u4870:
  3019     0237                     l4891:
  3020     0237  3011               	movlw	17
  3021     0238  0623               	xorwf	main@control_flag^(0+384),w
  3022     0239  1D03               	btfss	3,2
  3023     023A  2A3C               	goto	u4881
  3024     023B  2A3D               	goto	u4880
  3025     023C                     u4881:
  3026     023C  2A3E               	goto	l4897
  3027     023D                     u4880:
  3028     023D  2A29               	goto	l4885
  3029     023E                     l4897:
  3030     023E  3090               	movlw	144
  3031     023F  0624               	xorwf	main@key^(0+384),w
  3032     0240  1D03               	btfss	3,2
  3033     0241  2A43               	goto	u4891
  3034     0242  2A44               	goto	u4890
  3035     0243                     u4891:
  3036     0243  2A4D               	goto	l459
  3037     0244                     u4890:
  3038     0244                     l4899:
  3039     0244  3003               	movlw	3
  3040     0245  0623               	xorwf	main@control_flag^(0+384),w
  3041     0246  1D03               	btfss	3,2
  3042     0247  2A49               	goto	u4901
  3043     0248  2A4A               	goto	u4900
  3044     0249                     u4901:
  3045     0249  2A4D               	goto	l459
  3046     024A                     u4900:
  3047     024A                     l4901:
  3048                           
  3049                           ;main.c: 168: ;main.c: 169:             case 0x02:
  3050     024A  3001               	movlw	1
  3051     024B  00A3               	movwf	main@control_flag^(0+384)
  3052     024C  2A2B               	goto	l4887
  3053     024D                     l459:
  3054     024D  2B87               	goto	l4969
  3055     024E                     l4905:
  3056                           
  3057                           ;main.c: 178:                         clcd_write(0x0C, 0);
  3058     024E  309D               	movlw	(low (main@event| (0+256)))& (0+255)
  3059     024F  1283               	bcf	3,5	;RP0=0, select bank0
  3060     0250  1303               	bcf	3,6	;RP1=0, select bank0
  3061     0251  00A5               	movwf	display_dashboard@event
  3062     0252  1683               	bsf	3,5	;RP0=1, select bank3
  3063     0253  1703               	bsf	3,6	;RP1=1, select bank3
  3064     0254  0822               	movf	main@speed^(0+384),w
  3065     0255  1283               	bcf	3,5	;RP0=0, select bank0
  3066     0256  1303               	bcf	3,6	;RP1=0, select bank0
  3067     0257  00A6               	movwf	display_dashboard@speed
  3068     0258  160A  118A  257C  120A  118A  	fcall	_display_dashboard
  3069                           
  3070                           ;main.c: 179:                         _delay((unsigned long)((100)*(20000000/4000000.0))
      +                          );
  3071     025D  2BA0               	goto	l476
  3072     025E                     l479:	
  3073                           ;main.c: 184:                         control_flag = 0x03;;main.c: 185:                 
      +                                  reset_flag = 0x70;
  3074                           
  3075                           
  3076                           ;main.c: 187:                         clcd_write(0x0C, 0);
  3077     025E  3001               	movlw	1
  3078     025F  1683               	bsf	3,5	;RP0=1, select bank3
  3079     0260  1703               	bsf	3,6	;RP1=1, select bank3
  3080     0261  00A3               	movwf	main@control_flag^(0+384)
  3081                           
  3082                           ;main.c: 188:                         _delay((unsigned long)((100)*(20000000/4000000.0))
      +                          );
  3083     0262  1283               	bcf	3,5	;RP0=0, select bank0
  3084     0263  1303               	bcf	3,6	;RP1=0, select bank0
  3085     0264  1112               	bcf	18,2	;volatile
  3086     0265                     l4907:
  3087                           
  3088                           ;main.c: 190:                 }
  3089     0265  01F2               	clrf	clcd_write@mode
  3090     0266  300C               	movlw	12
  3091     0267  160A  118A  21AF  120A  118A  	fcall	_clcd_write
  3092     026C                     l4909:
  3093                           
  3094                           ;main.c: 191:                 break;
  3095     026C  30A5               	movlw	165
  3096     026D  1283               	bcf	3,5	;RP0=0, select bank0
  3097     026E  1303               	bcf	3,6	;RP1=0, select bank0
  3098     026F  00B9               	movwf	??_main
  3099     0270                     u4967:
  3100     0270  0BB9               	decfsz	??_main,f
  3101     0271  2A70               	goto	u4967
  3102     0272  2A73               	nop2
  3103                           
  3104                           ;main.c: 192: 
  3105     0273  2BA0               	goto	l476
  3106     0274                     l481:	
  3107                           ;main.c: 194: 
  3108                           
  3109                           
  3110                           ;main.c: 196:                 {
  3111     0274  3003               	movlw	3
  3112     0275  1683               	bsf	3,5	;RP0=1, select bank3
  3113     0276  1703               	bsf	3,6	;RP1=1, select bank3
  3114     0277  00A3               	movwf	main@control_flag^(0+384)
  3115                           
  3116                           ;main.c: 197:                     case 0x0A:
  3117     0278  3070               	movlw	112
  3118     0279  00A1               	movwf	main@reset_flag^(0+384)
  3119                           
  3120                           ;main.c: 198:                         clear_screen();
  3121     027A  1283               	bcf	3,5	;RP0=0, select bank0
  3122     027B  1303               	bcf	3,6	;RP1=0, select bank0
  3123     027C  1512               	bsf	18,2	;volatile
  3124     027D                     l4911:
  3125                           
  3126                           ;main.c: 199:                         control_flag = 0x01;
  3127     027D  01F2               	clrf	clcd_write@mode
  3128     027E  300C               	movlw	12
  3129     027F  160A  118A  21AF  120A  118A  	fcall	_clcd_write
  3130     0284                     l4913:
  3131                           
  3132                           ;main.c: 200:                         TMR2ON = 0;
  3133     0284  30A5               	movlw	165
  3134     0285  1283               	bcf	3,5	;RP0=0, select bank0
  3135     0286  1303               	bcf	3,6	;RP1=0, select bank0
  3136     0287  00B9               	movwf	??_main
  3137     0288                     u4977:
  3138     0288  0BB9               	decfsz	??_main,f
  3139     0289  2A88               	goto	u4977
  3140     028A  2A8B               	nop2
  3141                           
  3142                           ;main.c: 201:                         break;
  3143     028B  288C               	goto	l4771
  3144     028C                     l4917:
  3145     028C  0821               	movf	main@reset_flag^(0+384),w
  3146     028D  1283               	bcf	3,5	;RP0=0, select bank0
  3147     028E  1303               	bcf	3,6	;RP1=0, select bank0
  3148     028F  00A5               	movwf	login@reset_flag
  3149     0290  1683               	bsf	3,5	;RP0=1, select bank3
  3150     0291  1703               	bsf	3,6	;RP1=1, select bank3
  3151     0292  0824               	movf	main@key^(0+384),w
  3152     0293  120A  158A  264A  120A  118A  	fcall	_login
  3153                           
  3154                           ; Switch size 1, requested type "simple"
  3155                           ; Number of cases is 2, Range of values is 10 to 11
  3156                           ; switch strategies available:
  3157                           ; Name         Instructions Cycles
  3158                           ; simple_byte            7     4 (average)
  3159                           ; direct_byte           17    11 (fixed)
  3160                           ; jumptable            263     9 (fixed)
  3161                           ;	Chosen strategy is simple_byte
  3162     0298  3A0A               	xorlw	10	; case 10
  3163     0299  1903               	skipnz
  3164     029A  2A5E               	goto	l479
  3165     029B  3A01               	xorlw	1	; case 11
  3166     029C  1903               	skipnz
  3167     029D  2A74               	goto	l481
  3168     029E  2BA0               	goto	l476
  3169     029F                     l4919:
  3170                           
  3171                           ;main.c: 210: 
  3172     029F  160A  118A  2134  120A  118A  	fcall	_clear_screen
  3173     02A4                     l4921:
  3174                           
  3175                           ;main.c: 211:                     case 2:
  3176     02A4  3001               	movlw	1
  3177     02A5  1683               	bsf	3,5	;RP0=1, select bank3
  3178     02A6  1703               	bsf	3,6	;RP1=1, select bank3
  3179     02A7  00A3               	movwf	main@control_flag^(0+384)
  3180     02A8                     l4923:
  3181                           
  3182                           ;main.c: 212:                         menu_pos = 2;
  3183     02A8  1283               	bcf	3,5	;RP0=0, select bank0
  3184     02A9  1303               	bcf	3,6	;RP1=0, select bank0
  3185     02AA  1112               	bcf	18,2	;volatile
  3186                           
  3187                           ;main.c: 213:                         break;
  3188     02AB  2BA0               	goto	l476
  3189     02AC                     l4925:
  3190                           
  3191                           ;main.c: 216:                         menu_pos = 3;
  3192     02AC  1683               	bsf	3,5	;RP0=1, select bank3
  3193     02AD  1703               	bsf	3,6	;RP1=1, select bank3
  3194     02AE  019C               	clrf	main@menu_pos^(0+384)
  3195                           
  3196                           ;main.c: 217:                         break;
  3197     02AF  2BA0               	goto	l476
  3198     02B0                     l488:	
  3199                           ;main.c: 219:                     case 4:
  3200                           
  3201                           
  3202                           ;main.c: 220:                         menu_pos = 4;
  3203     02B0  3001               	movlw	1
  3204     02B1  1683               	bsf	3,5	;RP0=1, select bank3
  3205     02B2  1703               	bsf	3,6	;RP1=1, select bank3
  3206     02B3  009C               	movwf	main@menu_pos^(0+384)
  3207                           
  3208                           ;main.c: 221:                         break;
  3209     02B4  2BA0               	goto	l476
  3210     02B5                     l489:	
  3211                           ;main.c: 223:                 break;
  3212                           
  3213                           
  3214                           ;main.c: 224: 
  3215     02B5  3002               	movlw	2
  3216     02B6  1683               	bsf	3,5	;RP0=1, select bank3
  3217     02B7  1703               	bsf	3,6	;RP1=1, select bank3
  3218     02B8  009C               	movwf	main@menu_pos^(0+384)
  3219                           
  3220                           ;main.c: 225:             case 0x08:
  3221     02B9  2BA0               	goto	l476
  3222     02BA                     l490:	
  3223                           ;main.c: 227:                 view_log(key, reset_flag);
  3224                           
  3225                           
  3226                           ;main.c: 228:                 break;
  3227     02BA  3003               	movlw	3
  3228     02BB  1683               	bsf	3,5	;RP0=1, select bank3
  3229     02BC  1703               	bsf	3,6	;RP1=1, select bank3
  3230     02BD  009C               	movwf	main@menu_pos^(0+384)
  3231                           
  3232                           ;main.c: 229: 
  3233     02BE  2BA0               	goto	l476
  3234     02BF                     l491:	
  3235                           ;main.c: 231: 
  3236                           
  3237                           
  3238                           ;main.c: 232:                 if (clear_log(reset_flag) == 0x0C)
  3239     02BF  3004               	movlw	4
  3240     02C0  1683               	bsf	3,5	;RP0=1, select bank3
  3241     02C1  1703               	bsf	3,6	;RP1=1, select bank3
  3242     02C2  009C               	movwf	main@menu_pos^(0+384)
  3243                           
  3244                           ;main.c: 233:                     _delay((unsigned long)((1000)*(20000000/4000.0)));
  3245     02C3  2BA0               	goto	l476
  3246     02C4                     l4929:
  3247     02C4  0821               	movf	main@reset_flag^(0+384),w
  3248     02C5  1283               	bcf	3,5	;RP0=0, select bank0
  3249     02C6  1303               	bcf	3,6	;RP1=0, select bank0
  3250     02C7  00A5               	movwf	login_menu@reset_flag
  3251     02C8  1683               	bsf	3,5	;RP0=1, select bank3
  3252     02C9  1703               	bsf	3,6	;RP1=1, select bank3
  3253     02CA  0824               	movf	main@key^(0+384),w
  3254     02CB  120A  158A  2199  120A  118A  	fcall	_login_menu
  3255                           
  3256                           ; Switch size 1, requested type "simple"
  3257                           ; Number of cases is 6, Range of values is 0 to 10
  3258                           ; switch strategies available:
  3259                           ; Name         Instructions Cycles
  3260                           ; simple_byte           19    10 (average)
  3261                           ; direct_byte           41     8 (fixed)
  3262                           ; jumptable            260     6 (fixed)
  3263                           ;	Chosen strategy is simple_byte
  3264     02D0  3A00               	xorlw	0	; case 0
  3265     02D1  1903               	skipnz
  3266     02D2  2AAC               	goto	l4925
  3267     02D3  3A01               	xorlw	1	; case 1
  3268     02D4  1903               	skipnz
  3269     02D5  2AB0               	goto	l488
  3270     02D6  3A03               	xorlw	3	; case 2
  3271     02D7  1903               	skipnz
  3272     02D8  2AB5               	goto	l489
  3273     02D9  3A01               	xorlw	1	; case 3
  3274     02DA  1903               	skipnz
  3275     02DB  2ABA               	goto	l490
  3276     02DC  3A07               	xorlw	7	; case 4
  3277     02DD  1903               	skipnz
  3278     02DE  2ABF               	goto	l491
  3279     02DF  3A0E               	xorlw	14	; case 10
  3280     02E0  1903               	skipnz
  3281     02E1  2A9F               	goto	l4919
  3282     02E2  2BA0               	goto	l476
  3283     02E3                     l4931:
  3284                           
  3285                           ;main.c: 239:                 reset_flag = 0x50;
  3286     02E3  0821               	movf	main@reset_flag^(0+384),w
  3287     02E4  1283               	bcf	3,5	;RP0=0, select bank0
  3288     02E5  1303               	bcf	3,6	;RP1=0, select bank0
  3289     02E6  00A5               	movwf	view_log@reset_index
  3290     02E7  1683               	bsf	3,5	;RP0=1, select bank3
  3291     02E8  1703               	bsf	3,6	;RP1=1, select bank3
  3292     02E9  0824               	movf	main@key^(0+384),w
  3293     02EA  120A  158A  236C  120A  118A  	fcall	_view_log
  3294                           
  3295                           ;main.c: 240:                 clear_screen();
  3296     02EF  2BA0               	goto	l476
  3297     02F0                     l4933:
  3298                           
  3299                           ;main.c: 244: 
  3300     02F0  0821               	movf	main@reset_flag^(0+384),w
  3301     02F1  160A  118A  22D9  120A  118A  	fcall	_clear_log
  3302     02F6  3A0C               	xorlw	12
  3303     02F7  1D03               	skipz
  3304     02F8  2AFA               	goto	u4911
  3305     02F9  2AFB               	goto	u4910
  3306     02FA                     u4911:
  3307     02FA  2B0A               	goto	l4937
  3308     02FB                     u4910:
  3309     02FB                     l4935:
  3310                           
  3311                           ;main.c: 245:                 switch (change_password(key, reset_flag))
  3312     02FB  301A               	movlw	26
  3313     02FC  1283               	bcf	3,5	;RP0=0, select bank0
  3314     02FD  1303               	bcf	3,6	;RP1=0, select bank0
  3315     02FE  00BB               	movwf	??_main+2
  3316     02FF  305E               	movlw	94
  3317     0300  00BA               	movwf	??_main+1
  3318     0301  306D               	movlw	109
  3319     0302  00B9               	movwf	??_main
  3320     0303                     u4987:
  3321     0303  0BB9               	decfsz	??_main,f
  3322     0304  2B03               	goto	u4987
  3323     0305  0BBA               	decfsz	??_main+1,f
  3324     0306  2B03               	goto	u4987
  3325     0307  0BBB               	decfsz	??_main+2,f
  3326     0308  2B03               	goto	u4987
  3327     0309  2B0A               	nop2
  3328     030A                     l4937:
  3329                           
  3330                           ;main.c: 247:                     case 0x0C:
  3331     030A  3040               	movlw	64
  3332     030B  1683               	bsf	3,5	;RP0=1, select bank3
  3333     030C  1703               	bsf	3,6	;RP1=1, select bank3
  3334     030D  0621               	xorwf	main@reset_flag^(0+384),w
  3335     030E  1D03               	btfss	3,2
  3336     030F  2B11               	goto	u4921
  3337     0310  2B12               	goto	u4920
  3338     0311                     u4921:
  3339     0311  2B23               	goto	l4941
  3340     0312                     u4920:
  3341     0312                     l4939:
  3342                           
  3343                           ;main.c: 248:                         _delay((unsigned long)((1000)*(20000000/4000.0)));
  3344     0312  30E5               	movlw	low (STR_55| (0+32768))
  3345     0313  1283               	bcf	3,5	;RP0=0, select bank0
  3346     0314  1303               	bcf	3,6	;RP1=0, select bank0
  3347     0315  00A1               	movwf	log_car_event@event
  3348     0316  3088               	movlw	high (STR_55| (0+32768))
  3349     0317  00A2               	movwf	log_car_event@event+1
  3350     0318  1683               	bsf	3,5	;RP0=1, select bank3
  3351     0319  1703               	bsf	3,6	;RP1=1, select bank3
  3352     031A  0822               	movf	main@speed^(0+384),w
  3353     031B  1283               	bcf	3,5	;RP0=0, select bank0
  3354     031C  1303               	bcf	3,6	;RP1=0, select bank0
  3355     031D  00A3               	movwf	log_car_event@speed
  3356     031E  160A  118A  267E  120A  118A  	fcall	_log_car_event
  3357     0323                     l4941:
  3358                           
  3359                           ;main.c: 250:                         control_flag = 0x03;
  3360     0323  3003               	movlw	3
  3361     0324  1683               	bsf	3,5	;RP0=1, select bank3
  3362     0325  1703               	bsf	3,6	;RP1=1, select bank3
  3363     0326  00A3               	movwf	main@control_flag^(0+384)
  3364     0327                     l4943:
  3365                           
  3366                           ;main.c: 251:                         reset_flag = 0x50;
  3367     0327  3050               	movlw	80
  3368     0328  00A1               	movwf	main@reset_flag^(0+384)
  3369     0329                     l4945:
  3370                           
  3371                           ;main.c: 252:                         clear_screen();
  3372     0329  160A  118A  2134  120A  118A  	fcall	_clear_screen
  3373                           
  3374                           ;main.c: 253:                         break;
  3375     032E  2BA0               	goto	l476
  3376     032F                     l4947:
  3377                           
  3378                           ;main.c: 260:                 break;
  3379     032F  301A               	movlw	26
  3380     0330  1283               	bcf	3,5	;RP0=0, select bank0
  3381     0331  1303               	bcf	3,6	;RP1=0, select bank0
  3382     0332  00BB               	movwf	??_main+2
  3383     0333  305E               	movlw	94
  3384     0334  00BA               	movwf	??_main+1
  3385     0335  306D               	movlw	109
  3386     0336  00B9               	movwf	??_main
  3387     0337                     u4997:
  3388     0337  0BB9               	decfsz	??_main,f
  3389     0338  2B37               	goto	u4997
  3390     0339  0BBA               	decfsz	??_main+1,f
  3391     033A  2B37               	goto	u4997
  3392     033B  0BBB               	decfsz	??_main+2,f
  3393     033C  2B37               	goto	u4997
  3394     033D  2B3E               	nop2
  3395     033E                     l4949:
  3396                           
  3397                           ;main.c: 261: 
  3398     033E  30F1               	movlw	low (STR_56| (0+32768))
  3399     033F  1283               	bcf	3,5	;RP0=0, select bank0
  3400     0340  1303               	bcf	3,6	;RP1=0, select bank0
  3401     0341  00A1               	movwf	log_car_event@event
  3402     0342  3088               	movlw	high (STR_56| (0+32768))
  3403     0343  00A2               	movwf	log_car_event@event+1
  3404     0344  1683               	bsf	3,5	;RP0=1, select bank3
  3405     0345  1703               	bsf	3,6	;RP1=1, select bank3
  3406     0346  0822               	movf	main@speed^(0+384),w
  3407     0347  1283               	bcf	3,5	;RP0=0, select bank0
  3408     0348  1303               	bcf	3,6	;RP1=0, select bank0
  3409     0349  00A3               	movwf	log_car_event@speed
  3410     034A  160A  118A  267E  120A  118A  	fcall	_log_car_event
  3411     034F  2B23               	goto	l4941
  3412     0350                     l500:	
  3413                           ;main.c: 267:                     reset_flag = 0x50;
  3414                           
  3415                           
  3416                           ;main.c: 268:                     clear_screen();
  3417     0350  3001               	movlw	1
  3418     0351  1683               	bsf	3,5	;RP0=1, select bank3
  3419     0352  1703               	bsf	3,6	;RP1=1, select bank3
  3420     0353  00A3               	movwf	main@control_flag^(0+384)
  3421                           
  3422                           ;main.c: 269:                     continue;
  3423     0354  3050               	movlw	80
  3424     0355  00A1               	movwf	main@reset_flag^(0+384)
  3425                           
  3426                           ;main.c: 270:                 }
  3427     0356  2BA0               	goto	l476
  3428     0357                     l4959:
  3429     0357  0821               	movf	main@reset_flag^(0+384),w
  3430     0358  1283               	bcf	3,5	;RP0=0, select bank0
  3431     0359  1303               	bcf	3,6	;RP1=0, select bank0
  3432     035A  00A5               	movwf	change_password@reset_pwd
  3433     035B  1683               	bsf	3,5	;RP0=1, select bank3
  3434     035C  1703               	bsf	3,6	;RP1=1, select bank3
  3435     035D  0824               	movf	main@key^(0+384),w
  3436     035E  120A  158A  24AC  120A  118A  	fcall	_change_password
  3437                           
  3438                           ; Switch size 1, requested type "simple"
  3439                           ; Number of cases is 2, Range of values is 10 to 12
  3440                           ; switch strategies available:
  3441                           ; Name         Instructions Cycles
  3442                           ; simple_byte            7     4 (average)
  3443                           ; direct_byte           20    11 (fixed)
  3444                           ; jumptable            263     9 (fixed)
  3445                           ;	Chosen strategy is simple_byte
  3446     0363  3A0A               	xorlw	10	; case 10
  3447     0364  1903               	skipnz
  3448     0365  2B50               	goto	l500
  3449     0366  3A06               	xorlw	6	; case 12
  3450     0367  1903               	skipnz
  3451     0368  2B2F               	goto	l4947
  3452     0369  2BA0               	goto	l476
  3453     036A                     l4961:
  3454                           
  3455                           ;main.c: 276: }
  3456     036A  0821               	movf	main@reset_flag^(0+384),w
  3457     036B  1283               	bcf	3,5	;RP0=0, select bank0
  3458     036C  1303               	bcf	3,6	;RP1=0, select bank0
  3459     036D  00A5               	movwf	change_time@reset_time
  3460     036E  1683               	bsf	3,5	;RP0=1, select bank3
  3461     036F  1703               	bsf	3,6	;RP1=1, select bank3
  3462     0370  0824               	movf	main@key^(0+384),w
  3463     0371  120A  118A  23A8  120A  118A  	fcall	_change_time
  3464     0376  3A0C               	xorlw	12
  3465     0377  1D03               	skipz
  3466     0378  2B7A               	goto	u4931
  3467     0379  2B7B               	goto	u4930
  3468     037A                     u4931:
  3469     037A  2BA0               	goto	l476
  3470     037B                     u4930:
  3471     037B                     l4963:
  3472     037B  3003               	movlw	3
  3473     037C  1683               	bsf	3,5	;RP0=1, select bank3
  3474     037D  1703               	bsf	3,6	;RP1=1, select bank3
  3475     037E  00A3               	movwf	main@control_flag^(0+384)
  3476     037F  3050               	movlw	80
  3477     0380  00A1               	movwf	main@reset_flag^(0+384)
  3478     0381                     l4965:
  3479     0381  160A  118A  2134  120A  118A  	fcall	_clear_screen
  3480     0386  288C               	goto	l4771
  3481     0387                     l4969:
  3482     0387  1683               	bsf	3,5	;RP0=1, select bank3
  3483     0388  1703               	bsf	3,6	;RP1=1, select bank3
  3484     0389  0823               	movf	main@control_flag^(0+384),w
  3485                           
  3486                           ; Switch size 1, requested type "simple"
  3487                           ; Number of cases is 7, Range of values is 1 to 18
  3488                           ; switch strategies available:
  3489                           ; Name         Instructions Cycles
  3490                           ; simple_byte           22    12 (average)
  3491                           ; direct_byte           65    11 (fixed)
  3492                           ; jumptable            263     9 (fixed)
  3493                           ;	Chosen strategy is simple_byte
  3494     038A  3A01               	xorlw	1	; case 1
  3495     038B  1903               	skipnz
  3496     038C  2A4E               	goto	l4905
  3497     038D  3A03               	xorlw	3	; case 2
  3498     038E  1903               	skipnz
  3499     038F  2A8C               	goto	l4917
  3500     0390  3A01               	xorlw	1	; case 3
  3501     0391  1903               	skipnz
  3502     0392  2AC4               	goto	l4929
  3503     0393  3A0B               	xorlw	11	; case 8
  3504     0394  1903               	skipnz
  3505     0395  2AE3               	goto	l4931
  3506     0396  3A01               	xorlw	1	; case 9
  3507     0397  1903               	skipnz
  3508     0398  2AF0               	goto	l4933
  3509     0399  3A18               	xorlw	24	; case 17
  3510     039A  1903               	skipnz
  3511     039B  2B57               	goto	l4959
  3512     039C  3A03               	xorlw	3	; case 18
  3513     039D  1903               	skipnz
  3514     039E  2B6A               	goto	l4961
  3515     039F  2BA0               	goto	l476
  3516     03A0                     l476:
  3517     03A0  3080               	movlw	128
  3518     03A1  1683               	bsf	3,5	;RP0=1, select bank3
  3519     03A2  1703               	bsf	3,6	;RP1=1, select bank3
  3520     03A3  00A1               	movwf	main@reset_flag^(0+384)
  3521     03A4  288C               	goto	l4771
  3522     03A5  120A  118A  280C   	ljmp	start
  3523     03A8                     __end_of_main:
  3524                           
  3525                           	psect	text1
  3526     0B6C                     __ptext1:	
  3527 ;; *************** function _view_log *****************
  3528 ;; Defined at:
  3529 ;;		line 271 in file "car_black_box.c"
  3530 ;; Parameters:    Size  Location     Type
  3531 ;;  key             1    wreg     unsigned char 
  3532 ;;  reset_index     1    5[BANK0 ] unsigned char 
  3533 ;; Auto vars:     Size  Location     Type
  3534 ;;  key             1   22[BANK0 ] unsigned char 
  3535 ;;  i               2   23[BANK0 ] int 
  3536 ;;  log            11    8[BANK0 ] unsigned char [11]
  3537 ;;  position        2   19[BANK0 ] int 
  3538 ;;  add             1   21[BANK0 ] unsigned char 
  3539 ;; Return value:  Size  Location     Type
  3540 ;;                  1    wreg      void 
  3541 ;; Registers used:
  3542 ;;		wreg, fsr0l, fsr0h, status,2, status,0, btemp+1, pclath, cstack
  3543 ;; Tracked objects:
  3544 ;;		On entry : 0/0
  3545 ;;		On exit  : 0/0
  3546 ;;		Unchanged: 0/0
  3547 ;; Data sizes:     COMMON   BANK0   BANK1   BANK3   BANK2
  3548 ;;      Params:         0       1       0       0       0
  3549 ;;      Locals:         0      17       0       0       0
  3550 ;;      Temps:          0       2       0       0       0
  3551 ;;      Totals:         0      20       0       0       0
  3552 ;;Total ram usage:       20 bytes
  3553 ;; Hardware stack levels used: 1
  3554 ;; Hardware stack levels required when called: 5
  3555 ;; This function calls:
  3556 ;;		___bmul
  3557 ;;		_clcd_print
  3558 ;;		_clcd_putch
  3559 ;;		_ext_eeprom_read
  3560 ;; This function is called by:
  3561 ;;		_main
  3562 ;; This function uses a non-reentrant model
  3563 ;;
  3564                           
  3565     0B6C                     _view_log:	
  3566                           ;psect for function _view_log
  3567                           
  3568                           
  3569                           ;incstack = 0
  3570                           ; Regs used in _view_log: [wreg-fsr0h+status,2+status,0+btemp+1+pclath+cstack]
  3571                           ;view_log@key stored from wreg
  3572     0B6C  1283               	bcf	3,5	;RP0=0, select bank0
  3573     0B6D  1303               	bcf	3,6	;RP1=0, select bank0
  3574     0B6E  00B6               	movwf	view_log@key
  3575     0B6F                     l4323:
  3576                           
  3577                           ;car_black_box.c: 271: void view_log(unsigned char key, char reset_index);car_black_box.
      +                          c: 272: {;car_black_box.c: 273:     static int index;;car_black_box.c: 274:     char log
      +                          [11];;car_black_box.c: 275:     log[10] = 0;
  3578     0B6F  01B2               	clrf	view_log@log+10
  3579     0B70                     l4325:
  3580                           
  3581                           ;car_black_box.c: 276:     int position;;car_black_box.c: 277:     unsigned char add;;ca
      +                          r_black_box.c: 279:     if (event_count == -1)
  3582     0B70  0A57               	incf	_event_count,w
  3583     0B71  1D03               	skipz
  3584     0B72  2B77               	goto	u4211
  3585     0B73  0A58               	incf	_event_count+1,w
  3586     0B74  1D03               	btfss	3,2
  3587     0B75  2B77               	goto	u4211
  3588     0B76  2B78               	goto	u4210
  3589     0B77                     u4211:
  3590     0B77  2B8F               	goto	l4329
  3591     0B78                     u4210:
  3592     0B78                     l4327:
  3593                           
  3594                           ;car_black_box.c: 280:     {;car_black_box.c: 281:         clcd_print("                "
      +                          , (0x80 + 0));
  3595     0B78  3046               	movlw	low ((STR_29+1)| (0+32768))
  3596     0B79  00F6               	movwf	clcd_print@str
  3597     0B7A  3087               	movlw	high ((STR_29+1)| (0+32768))
  3598     0B7B  00F7               	movwf	clcd_print@str+1
  3599     0B7C  3080               	movlw	128
  3600     0B7D  00F8               	movwf	clcd_print@addr
  3601     0B7E  160A  118A  232F  120A  158A  	fcall	_clcd_print
  3602                           
  3603                           ;car_black_box.c: 282:         clcd_print("    No logs     ", (0xC0 + 0));
  3604     0B83  307A               	movlw	low (STR_15| (0+32768))
  3605     0B84  00F6               	movwf	clcd_print@str
  3606     0B85  3087               	movlw	high (STR_15| (0+32768))
  3607     0B86  00F7               	movwf	clcd_print@str+1
  3608     0B87  30C0               	movlw	192
  3609     0B88  00F8               	movwf	clcd_print@addr
  3610     0B89  160A  118A  232F  120A  158A  	fcall	_clcd_print
  3611                           
  3612                           ;car_black_box.c: 283:     }
  3613     0B8E  2CAB               	goto	l131
  3614     0B8F                     l4329:
  3615                           
  3616                           ;car_black_box.c: 285:     {;car_black_box.c: 286:         if (reset_index == 0x20)
  3617     0B8F  3020               	movlw	32
  3618     0B90  0625               	xorwf	view_log@reset_index,w
  3619     0B91  1D03               	btfss	3,2
  3620     0B92  2B94               	goto	u4221
  3621     0B93  2B95               	goto	u4220
  3622     0B94                     u4221:
  3623     0B94  2B97               	goto	l4333
  3624     0B95                     u4220:
  3625     0B95                     l4331:
  3626                           
  3627                           ;car_black_box.c: 287:         {;car_black_box.c: 288:             index = 0;
  3628     0B95  01CC               	clrf	view_log@index
  3629     0B96  01CD               	clrf	view_log@index+1
  3630     0B97                     l4333:
  3631                           
  3632                           ;car_black_box.c: 291:         if (key == 0x37 && index < event_count)
  3633     0B97  3037               	movlw	55
  3634     0B98  0636               	xorwf	view_log@key,w
  3635     0B99  1D03               	btfss	3,2
  3636     0B9A  2B9C               	goto	u4231
  3637     0B9B  2B9D               	goto	u4230
  3638     0B9C                     u4231:
  3639     0B9C  2BBF               	goto	l4341
  3640     0B9D                     u4230:
  3641     0B9D                     l4335:
  3642     0B9D  084D               	movf	view_log@index+1,w
  3643     0B9E  3A80               	xorlw	128
  3644     0B9F  00A6               	movwf	??_view_log
  3645     0BA0  0858               	movf	_event_count+1,w
  3646     0BA1  3A80               	xorlw	128
  3647     0BA2  0226               	subwf	??_view_log,w
  3648     0BA3  1D03               	skipz
  3649     0BA4  2BA7               	goto	u4245
  3650     0BA5  0857               	movf	_event_count,w
  3651     0BA6  024C               	subwf	view_log@index,w
  3652     0BA7                     u4245:
  3653     0BA7  1803               	skipnc
  3654     0BA8  2BAA               	goto	u4241
  3655     0BA9  2BAB               	goto	u4240
  3656     0BAA                     u4241:
  3657     0BAA  2BBF               	goto	l4341
  3658     0BAB                     u4240:
  3659     0BAB                     l4337:
  3660                           
  3661                           ;car_black_box.c: 292:         {;car_black_box.c: 293:             index++;
  3662     0BAB  3001               	movlw	1
  3663     0BAC  1283               	bcf	3,5	;RP0=0, select bank0
  3664     0BAD  1303               	bcf	3,6	;RP1=0, select bank0
  3665     0BAE  07CC               	addwf	view_log@index,f
  3666     0BAF  1803               	skipnc
  3667     0BB0  0ACD               	incf	view_log@index+1,f
  3668     0BB1  3000               	movlw	0
  3669     0BB2  07CD               	addwf	view_log@index+1,f
  3670     0BB3                     l4339:
  3671                           
  3672                           ;car_black_box.c: 294:             clcd_print("                ", (0xC0 + 0));
  3673     0BB3  3046               	movlw	low ((STR_29+1)| (0+32768))
  3674     0BB4  00F6               	movwf	clcd_print@str
  3675     0BB5  3087               	movlw	high ((STR_29+1)| (0+32768))
  3676     0BB6  00F7               	movwf	clcd_print@str+1
  3677     0BB7  30C0               	movlw	192
  3678     0BB8  00F8               	movwf	clcd_print@addr
  3679     0BB9  160A  118A  232F  120A  158A  	fcall	_clcd_print
  3680                           
  3681                           ;car_black_box.c: 295:         }
  3682     0BBE  2BE7               	goto	l4349
  3683     0BBF                     l4341:
  3684     0BBF  302F               	movlw	47
  3685     0BC0  1283               	bcf	3,5	;RP0=0, select bank0
  3686     0BC1  1303               	bcf	3,6	;RP1=0, select bank0
  3687     0BC2  0636               	xorwf	view_log@key,w
  3688     0BC3  1D03               	btfss	3,2
  3689     0BC4  2BC6               	goto	u4251
  3690     0BC5  2BC7               	goto	u4250
  3691     0BC6                     u4251:
  3692     0BC6  2BE7               	goto	l4349
  3693     0BC7                     u4250:
  3694     0BC7                     l4343:
  3695     0BC7  084D               	movf	view_log@index+1,w
  3696     0BC8  3A80               	xorlw	128
  3697     0BC9  00FF               	movwf	btemp+1
  3698     0BCA  3080               	movlw	128
  3699     0BCB  027F               	subwf	btemp+1,w
  3700     0BCC  1D03               	skipz
  3701     0BCD  2BD0               	goto	u4265
  3702     0BCE  3001               	movlw	1
  3703     0BCF  024C               	subwf	view_log@index,w
  3704     0BD0                     u4265:
  3705     0BD0  1C03               	skipc
  3706     0BD1  2BD3               	goto	u4261
  3707     0BD2  2BD4               	goto	u4260
  3708     0BD3                     u4261:
  3709     0BD3  2BE7               	goto	l4349
  3710     0BD4                     u4260:
  3711     0BD4                     l4345:
  3712                           
  3713                           ;car_black_box.c: 297:         {;car_black_box.c: 298:             index--;
  3714     0BD4  30FF               	movlw	255
  3715     0BD5  1283               	bcf	3,5	;RP0=0, select bank0
  3716     0BD6  1303               	bcf	3,6	;RP1=0, select bank0
  3717     0BD7  07CC               	addwf	view_log@index,f
  3718     0BD8  1803               	skipnc
  3719     0BD9  0ACD               	incf	view_log@index+1,f
  3720     0BDA  30FF               	movlw	255
  3721     0BDB  07CD               	addwf	view_log@index+1,f
  3722     0BDC                     l4347:
  3723                           
  3724                           ;car_black_box.c: 299:             clcd_print("                ", (0xC0 + 0));
  3725     0BDC  3046               	movlw	low ((STR_29+1)| (0+32768))
  3726     0BDD  00F6               	movwf	clcd_print@str
  3727     0BDE  3087               	movlw	high ((STR_29+1)| (0+32768))
  3728     0BDF  00F7               	movwf	clcd_print@str+1
  3729     0BE0  30C0               	movlw	192
  3730     0BE1  00F8               	movwf	clcd_print@addr
  3731     0BE2  160A  118A  232F  120A  158A  	fcall	_clcd_print
  3732     0BE7                     l4349:
  3733                           
  3734                           ;car_black_box.c: 302:         position = index;
  3735     0BE7  1283               	bcf	3,5	;RP0=0, select bank0
  3736     0BE8  1303               	bcf	3,6	;RP1=0, select bank0
  3737     0BE9  084D               	movf	view_log@index+1,w
  3738     0BEA  00B4               	movwf	view_log@position+1
  3739     0BEB  084C               	movf	view_log@index,w
  3740     0BEC  00B3               	movwf	view_log@position
  3741     0BED                     l4351:
  3742                           
  3743                           ;car_black_box.c: 304:         for (int i = 0; i < 10; i++)
  3744     0BED  01B7               	clrf	view_log@i
  3745     0BEE  01B8               	clrf	view_log@i+1
  3746     0BEF                     l4357:
  3747                           
  3748                           ;car_black_box.c: 305:         {;car_black_box.c: 306:             add = position * 10 +
      +                           5 + i;
  3749     0BEF  300A               	movlw	10
  3750     0BF0  00F2               	movwf	___bmul@multiplicand
  3751     0BF1  1283               	bcf	3,5	;RP0=0, select bank0
  3752     0BF2  1303               	bcf	3,6	;RP1=0, select bank0
  3753     0BF3  0833               	movf	view_log@position,w
  3754     0BF4  160A  118A  2169  120A  158A  	fcall	___bmul
  3755     0BF9  1283               	bcf	3,5	;RP0=0, select bank0
  3756     0BFA  1303               	bcf	3,6	;RP1=0, select bank0
  3757     0BFB  0737               	addwf	view_log@i,w
  3758     0BFC  3E05               	addlw	5
  3759     0BFD  00B5               	movwf	view_log@add
  3760     0BFE                     l4359:
  3761                           
  3762                           ;car_black_box.c: 307:             log[i] = ext_eeprom_read(add);
  3763     0BFE  0837               	movf	view_log@i,w
  3764     0BFF  3E28               	addlw	(low (view_log@log| 0))& (0+255)
  3765     0C00  0084               	movwf	4
  3766     0C01  0835               	movf	view_log@add,w
  3767     0C02  160A  118A  2304  120A  158A  	fcall	_ext_eeprom_read
  3768     0C07  1383               	bcf	3,7	;select IRP bank0
  3769     0C08  0080               	movwf	0
  3770     0C09                     l4361:
  3771                           
  3772                           ;car_black_box.c: 308:         }
  3773     0C09  3001               	movlw	1
  3774     0C0A  1283               	bcf	3,5	;RP0=0, select bank0
  3775     0C0B  1303               	bcf	3,6	;RP1=0, select bank0
  3776     0C0C  07B7               	addwf	view_log@i,f
  3777     0C0D  1803               	skipnc
  3778     0C0E  0AB8               	incf	view_log@i+1,f
  3779     0C0F  3000               	movlw	0
  3780     0C10  07B8               	addwf	view_log@i+1,f
  3781     0C11                     l4363:
  3782     0C11  0838               	movf	view_log@i+1,w
  3783     0C12  3A80               	xorlw	128
  3784     0C13  00FF               	movwf	btemp+1
  3785     0C14  3080               	movlw	128
  3786     0C15  027F               	subwf	btemp+1,w
  3787     0C16  1D03               	skipz
  3788     0C17  2C1A               	goto	u4275
  3789     0C18  300A               	movlw	10
  3790     0C19  0237               	subwf	view_log@i,w
  3791     0C1A                     u4275:
  3792     0C1A  1C03               	skipc
  3793     0C1B  2C1D               	goto	u4271
  3794     0C1C  2C1E               	goto	u4270
  3795     0C1D                     u4271:
  3796     0C1D  2BEF               	goto	l4357
  3797     0C1E                     u4270:
  3798     0C1E                     l4365:
  3799                           
  3800                           ;car_black_box.c: 311:         clcd_putch(index + '0', (0xC0 + 0));
  3801     0C1E  30C0               	movlw	192
  3802     0C1F  1283               	bcf	3,5	;RP0=0, select bank0
  3803     0C20  1303               	bcf	3,6	;RP1=0, select bank0
  3804     0C21  00A3               	movwf	clcd_putch@addr
  3805     0C22  084C               	movf	view_log@index,w
  3806     0C23  3E30               	addlw	48
  3807     0C24  160A  118A  217C  120A  158A  	fcall	_clcd_putch
  3808                           
  3809                           ;car_black_box.c: 314:         clcd_putch(log[0], (0xC0 + 2));
  3810     0C29  30C2               	movlw	194
  3811     0C2A  1283               	bcf	3,5	;RP0=0, select bank0
  3812     0C2B  1303               	bcf	3,6	;RP1=0, select bank0
  3813     0C2C  00A3               	movwf	clcd_putch@addr
  3814     0C2D  0828               	movf	view_log@log,w
  3815     0C2E  160A  118A  217C  120A  158A  	fcall	_clcd_putch
  3816                           
  3817                           ;car_black_box.c: 315:         clcd_putch(log[1], (0xC0 + 3));
  3818     0C33  30C3               	movlw	195
  3819     0C34  1283               	bcf	3,5	;RP0=0, select bank0
  3820     0C35  1303               	bcf	3,6	;RP1=0, select bank0
  3821     0C36  00A3               	movwf	clcd_putch@addr
  3822     0C37  0829               	movf	view_log@log+1,w
  3823     0C38  160A  118A  217C  120A  158A  	fcall	_clcd_putch
  3824                           
  3825                           ;car_black_box.c: 316:         clcd_putch(':', (0xC0 + 4));
  3826     0C3D  30C4               	movlw	196
  3827     0C3E  1283               	bcf	3,5	;RP0=0, select bank0
  3828     0C3F  1303               	bcf	3,6	;RP1=0, select bank0
  3829     0C40  00A3               	movwf	clcd_putch@addr
  3830     0C41  303A               	movlw	58
  3831     0C42  160A  118A  217C  120A  158A  	fcall	_clcd_putch
  3832                           
  3833                           ;car_black_box.c: 319:         clcd_putch(log[2], (0xC0 + 5));
  3834     0C47  30C5               	movlw	197
  3835     0C48  1283               	bcf	3,5	;RP0=0, select bank0
  3836     0C49  1303               	bcf	3,6	;RP1=0, select bank0
  3837     0C4A  00A3               	movwf	clcd_putch@addr
  3838     0C4B  082A               	movf	view_log@log+2,w
  3839     0C4C  160A  118A  217C  120A  158A  	fcall	_clcd_putch
  3840                           
  3841                           ;car_black_box.c: 320:         clcd_putch(log[3], (0xC0 + 6));
  3842     0C51  30C6               	movlw	198
  3843     0C52  1283               	bcf	3,5	;RP0=0, select bank0
  3844     0C53  1303               	bcf	3,6	;RP1=0, select bank0
  3845     0C54  00A3               	movwf	clcd_putch@addr
  3846     0C55  082B               	movf	view_log@log+3,w
  3847     0C56  160A  118A  217C  120A  158A  	fcall	_clcd_putch
  3848                           
  3849                           ;car_black_box.c: 321:         clcd_putch(':', (0xC0 + 7));
  3850     0C5B  30C7               	movlw	199
  3851     0C5C  1283               	bcf	3,5	;RP0=0, select bank0
  3852     0C5D  1303               	bcf	3,6	;RP1=0, select bank0
  3853     0C5E  00A3               	movwf	clcd_putch@addr
  3854     0C5F  303A               	movlw	58
  3855     0C60  160A  118A  217C  120A  158A  	fcall	_clcd_putch
  3856                           
  3857                           ;car_black_box.c: 324:         clcd_putch(log[4], (0xC0 + 8));
  3858     0C65  30C8               	movlw	200
  3859     0C66  1283               	bcf	3,5	;RP0=0, select bank0
  3860     0C67  1303               	bcf	3,6	;RP1=0, select bank0
  3861     0C68  00A3               	movwf	clcd_putch@addr
  3862     0C69  082C               	movf	view_log@log+4,w
  3863     0C6A  160A  118A  217C  120A  158A  	fcall	_clcd_putch
  3864                           
  3865                           ;car_black_box.c: 325:         clcd_putch(log[5], (0xC0 + 9));
  3866     0C6F  30C9               	movlw	201
  3867     0C70  1283               	bcf	3,5	;RP0=0, select bank0
  3868     0C71  1303               	bcf	3,6	;RP1=0, select bank0
  3869     0C72  00A3               	movwf	clcd_putch@addr
  3870     0C73  082D               	movf	view_log@log+5,w
  3871     0C74  160A  118A  217C  120A  158A  	fcall	_clcd_putch
  3872                           
  3873                           ;car_black_box.c: 328:         clcd_putch(log[6], (0xC0 + 11));
  3874     0C79  30CB               	movlw	203
  3875     0C7A  1283               	bcf	3,5	;RP0=0, select bank0
  3876     0C7B  1303               	bcf	3,6	;RP1=0, select bank0
  3877     0C7C  00A3               	movwf	clcd_putch@addr
  3878     0C7D  082E               	movf	view_log@log+6,w
  3879     0C7E  160A  118A  217C  120A  158A  	fcall	_clcd_putch
  3880                           
  3881                           ;car_black_box.c: 329:         clcd_putch(log[7], (0xC0 + 12));
  3882     0C83  30CC               	movlw	204
  3883     0C84  1283               	bcf	3,5	;RP0=0, select bank0
  3884     0C85  1303               	bcf	3,6	;RP1=0, select bank0
  3885     0C86  00A3               	movwf	clcd_putch@addr
  3886     0C87  082F               	movf	view_log@log+7,w
  3887     0C88  160A  118A  217C  120A  158A  	fcall	_clcd_putch
  3888                           
  3889                           ;car_black_box.c: 332:         clcd_putch(log[8], (0xC0 + 14));
  3890     0C8D  30CE               	movlw	206
  3891     0C8E  1283               	bcf	3,5	;RP0=0, select bank0
  3892     0C8F  1303               	bcf	3,6	;RP1=0, select bank0
  3893     0C90  00A3               	movwf	clcd_putch@addr
  3894     0C91  0830               	movf	view_log@log+8,w
  3895     0C92  160A  118A  217C  120A  158A  	fcall	_clcd_putch
  3896                           
  3897                           ;car_black_box.c: 333:         clcd_putch(log[9], (0xC0 + 15));
  3898     0C97  30CF               	movlw	207
  3899     0C98  1283               	bcf	3,5	;RP0=0, select bank0
  3900     0C99  1303               	bcf	3,6	;RP1=0, select bank0
  3901     0C9A  00A3               	movwf	clcd_putch@addr
  3902     0C9B  0831               	movf	view_log@log+9,w
  3903     0C9C  160A  118A  217C  120A  158A  	fcall	_clcd_putch
  3904     0CA1                     l4367:
  3905                           
  3906                           ;car_black_box.c: 335:         _delay((unsigned long)((500)*(20000000/4000000.0)));
  3907     0CA1  3004               	movlw	4
  3908     0CA2  1283               	bcf	3,5	;RP0=0, select bank0
  3909     0CA3  1303               	bcf	3,6	;RP1=0, select bank0
  3910     0CA4  00A7               	movwf	??_view_log+1
  3911     0CA5  303D               	movlw	61
  3912     0CA6  00A6               	movwf	??_view_log
  3913     0CA7                     u5007:
  3914     0CA7  0BA6               	decfsz	??_view_log,f
  3915     0CA8  2CA7               	goto	u5007
  3916     0CA9  0BA7               	decfsz	??_view_log+1,f
  3917     0CAA  2CA7               	goto	u5007
  3918     0CAB                     l131:
  3919     0CAB  0008               	return
  3920     0CAC                     __end_of_view_log:
  3921                           
  3922                           	psect	text2
  3923     11F0                     __ptext2:	
  3924 ;; *************** function _strcpy *****************
  3925 ;; Defined at:
  3926 ;;		line 3 in file "C:\Program Files\Microchip\xc8\v3.00\pic\sources\c99\common\strcpy.c"
  3927 ;; Parameters:    Size  Location     Type
  3928 ;;  dest            1    2[COMMON] PTR unsigned char 
  3929 ;;		 -> main@event(3), 
  3930 ;;  src             2    3[COMMON] PTR const unsigned char 
  3931 ;;		 -> STR_48(3), STR_46(3), STR_45(3), STR_44(3), 
  3932 ;;		 -> STR_43(3), STR_42(3), STR_41(3), 
  3933 ;; Auto vars:     Size  Location     Type
  3934 ;;  d               1    7[COMMON] PTR unsigned char 
  3935 ;;		 -> main@event(3), 
  3936 ;; Return value:  Size  Location     Type
  3937 ;;                  1    2[COMMON] PTR unsigned char 
  3938 ;; Registers used:
  3939 ;;		wreg, fsr0l, fsr0h, status,2, status,0, btemp+1, pclath
  3940 ;; Tracked objects:
  3941 ;;		On entry : 0/0
  3942 ;;		On exit  : 0/0
  3943 ;;		Unchanged: 0/0
  3944 ;; Data sizes:     COMMON   BANK0   BANK1   BANK3   BANK2
  3945 ;;      Params:         3       0       0       0       0
  3946 ;;      Locals:         1       0       0       0       0
  3947 ;;      Temps:          2       0       0       0       0
  3948 ;;      Totals:         6       0       0       0       0
  3949 ;;Total ram usage:        6 bytes
  3950 ;; Hardware stack levels used: 2
  3951 ;; Hardware stack levels required when called: 1
  3952 ;; This function calls:
  3953 ;;		Nothing
  3954 ;; This function is called by:
  3955 ;;		_main
  3956 ;; This function uses a non-reentrant model
  3957 ;;
  3958                           
  3959     11F0                     _strcpy:	
  3960                           ;psect for function _strcpy
  3961                           
  3962     11F0                     l4751:	
  3963                           ;incstack = 0
  3964                           ; Regs used in _strcpy: [wreg-fsr0h+status,2+status,0+btemp+1+pclath]
  3965                           
  3966     11F0  0872               	movf	strcpy@dest,w
  3967     11F1  00F7               	movwf	strcpy@d
  3968     11F2                     l4753:
  3969     11F2  0874               	movf	strcpy@src+1,w
  3970     11F3  00F6               	movwf	??_strcpy+1
  3971     11F4  0873               	movf	strcpy@src,w
  3972     11F5  00F5               	movwf	??_strcpy
  3973     11F6  0AF3               	incf	strcpy@src,f
  3974     11F7  1903               	skipnz
  3975     11F8  0AF4               	incf	strcpy@src+1,f
  3976     11F9  0876               	movf	??_strcpy+1,w
  3977     11FA  1283               	bcf	3,5	;RP0=0, select bank0
  3978     11FB  1303               	bcf	3,6	;RP1=0, select bank0
  3979     11FC  00FF               	movwf	btemp+1
  3980     11FD  0875               	movf	??_strcpy,w
  3981     11FE  0084               	movwf	4
  3982     11FF  160A  118A  2000  160A  118A  	fcall	stringtab
  3983     1204  00FF               	movwf	btemp+1
  3984     1205  0877               	movf	strcpy@d,w
  3985     1206  0AF7               	incf	strcpy@d,f
  3986     1207  0084               	movwf	4
  3987     1208  087F               	movf	btemp+1,w
  3988     1209  1783               	bsf	3,7	;select IRP bank2
  3989     120A  0080               	movwf	0
  3990     120B  0800               	movf	0,w
  3991     120C  1D03               	btfss	3,2
  3992     120D  2A0F               	goto	u4721
  3993     120E  2A10               	goto	u4720
  3994     120F                     u4721:
  3995     120F  29F2               	goto	l4753
  3996     1210                     u4720:
  3997     1210                     l1100:
  3998     1210  0008               	return
  3999     1211                     __end_of_strcpy:
  4000                           
  4001                           	psect	text3
  4002     090D                     __ptext3:	
  4003 ;; *************** function _read_digital_keypad *****************
  4004 ;; Defined at:
  4005 ;;		line 14 in file "digital_keypad.c"
  4006 ;; Parameters:    Size  Location     Type
  4007 ;;		None
  4008 ;; Auto vars:     Size  Location     Type
  4009 ;;  key             1    2[COMMON] unsigned char 
  4010 ;; Return value:  Size  Location     Type
  4011 ;;                  1    wreg      unsigned char 
  4012 ;; Registers used:
  4013 ;;		wreg, status,2, status,0, btemp+1
  4014 ;; Tracked objects:
  4015 ;;		On entry : 0/0
  4016 ;;		On exit  : 0/0
  4017 ;;		Unchanged: 0/0
  4018 ;; Data sizes:     COMMON   BANK0   BANK1   BANK3   BANK2
  4019 ;;      Params:         0       0       0       0       0
  4020 ;;      Locals:         1       0       0       0       0
  4021 ;;      Temps:          0       0       0       0       0
  4022 ;;      Totals:         1       0       0       0       0
  4023 ;;Total ram usage:        1 bytes
  4024 ;; Hardware stack levels used: 1
  4025 ;; Hardware stack levels required when called: 1
  4026 ;; This function calls:
  4027 ;;		Nothing
  4028 ;; This function is called by:
  4029 ;;		_main
  4030 ;; This function uses a non-reentrant model
  4031 ;;
  4032                           
  4033     090D                     _read_digital_keypad:	
  4034                           ;psect for function _read_digital_keypad
  4035                           
  4036     090D                     l4679:	
  4037                           ;incstack = 0
  4038                           ; Regs used in _read_digital_keypad: [wreg+status,2+status,0+btemp+1]
  4039                           
  4040                           
  4041                           ;digital_keypad.c: 16:     static char once;;digital_keypad.c: 17:     static int long_p
      +                          ressed;;digital_keypad.c: 18:     static unsigned char pre_key;;digital_keypad.c: 19:   
      +                            unsigned char key = PORTB & 0x3F;
  4042     090D  1283               	bcf	3,5	;RP0=0, select bank0
  4043     090E  1303               	bcf	3,6	;RP1=0, select bank0
  4044     090F  0806               	movf	6,w	;volatile
  4045     0910  00F2               	movwf	read_digital_keypad@key
  4046     0911                     l4681:
  4047     0911  303F               	movlw	63
  4048     0912  05F2               	andwf	read_digital_keypad@key,f
  4049     0913                     l4683:
  4050                           
  4051                           ;digital_keypad.c: 22:     if (key != 0x3F && once == 0)
  4052     0913  303F               	movlw	63
  4053     0914  0672               	xorwf	read_digital_keypad@key,w
  4054     0915  1903               	btfsc	3,2
  4055     0916  2918               	goto	u4591
  4056     0917  2919               	goto	u4590
  4057     0918                     u4591:
  4058     0918  2925               	goto	l4693
  4059     0919                     u4590:
  4060     0919                     l4685:
  4061     0919  087A               	movf	read_digital_keypad@once,w
  4062     091A  1D03               	btfss	3,2
  4063     091B  291D               	goto	u4601
  4064     091C  291E               	goto	u4600
  4065     091D                     u4601:
  4066     091D  2925               	goto	l4693
  4067     091E                     u4600:
  4068     091E                     l4687:
  4069                           
  4070                           ;digital_keypad.c: 23:     {;digital_keypad.c: 24:         once = 1;
  4071     091E  3001               	movlw	1
  4072     091F  00FA               	movwf	read_digital_keypad@once
  4073     0920                     l4689:
  4074                           
  4075                           ;digital_keypad.c: 25:         long_pressed = 0;
  4076     0920  01C6               	clrf	read_digital_keypad@long_pressed
  4077     0921  01C7               	clrf	read_digital_keypad@long_pressed+1
  4078     0922                     l4691:
  4079                           
  4080                           ;digital_keypad.c: 26:         pre_key = key;
  4081     0922  0872               	movf	read_digital_keypad@key,w
  4082     0923  00D0               	movwf	read_digital_keypad@pre_key
  4083                           
  4084                           ;digital_keypad.c: 27:     }
  4085     0924  2942               	goto	l4705
  4086     0925                     l4693:
  4087     0925  303F               	movlw	63
  4088     0926  0672               	xorwf	read_digital_keypad@key,w
  4089     0927  1D03               	btfss	3,2
  4090     0928  292A               	goto	u4611
  4091     0929  292B               	goto	u4610
  4092     092A                     u4611:
  4093     092A  2942               	goto	l4705
  4094     092B                     u4610:
  4095     092B                     l4695:
  4096     092B  037A               	decf	read_digital_keypad@once,w
  4097     092C  1D03               	btfss	3,2
  4098     092D  292F               	goto	u4621
  4099     092E  2930               	goto	u4620
  4100     092F                     u4621:
  4101     092F  2942               	goto	l4705
  4102     0930                     u4620:
  4103     0930                     l4697:
  4104                           
  4105                           ;digital_keypad.c: 29:     {;digital_keypad.c: 30:         once = 0;
  4106     0930  01FA               	clrf	read_digital_keypad@once
  4107     0931                     l4699:
  4108                           
  4109                           ;digital_keypad.c: 32:         if (long_pressed < 15)
  4110     0931  0847               	movf	read_digital_keypad@long_pressed+1,w
  4111     0932  3A80               	xorlw	128
  4112     0933  00FF               	movwf	btemp+1
  4113     0934  3080               	movlw	128
  4114     0935  027F               	subwf	btemp+1,w
  4115     0936  1D03               	skipz
  4116     0937  293A               	goto	u4635
  4117     0938  300F               	movlw	15
  4118     0939  0246               	subwf	read_digital_keypad@long_pressed,w
  4119     093A                     u4635:
  4120     093A  1803               	skipnc
  4121     093B  293D               	goto	u4631
  4122     093C  293E               	goto	u4630
  4123     093D                     u4631:
  4124     093D  2942               	goto	l4705
  4125     093E                     u4630:
  4126     093E                     l4701:
  4127                           
  4128                           ;digital_keypad.c: 33:         {;digital_keypad.c: 34:             return pre_key;
  4129     093E  1283               	bcf	3,5	;RP0=0, select bank0
  4130     093F  1303               	bcf	3,6	;RP1=0, select bank0
  4131     0940  0850               	movf	read_digital_keypad@pre_key,w
  4132     0941  2998               	goto	l260
  4133     0942                     l4705:
  4134                           
  4135                           ;digital_keypad.c: 40:     if (once == 1 && long_pressed < 16)
  4136     0942  037A               	decf	read_digital_keypad@once,w
  4137     0943  1D03               	btfss	3,2
  4138     0944  2946               	goto	u4641
  4139     0945  2947               	goto	u4640
  4140     0946                     u4641:
  4141     0946  295F               	goto	l4711
  4142     0947                     u4640:
  4143     0947                     l4707:
  4144     0947  1283               	bcf	3,5	;RP0=0, select bank0
  4145     0948  1303               	bcf	3,6	;RP1=0, select bank0
  4146     0949  0847               	movf	read_digital_keypad@long_pressed+1,w
  4147     094A  3A80               	xorlw	128
  4148     094B  00FF               	movwf	btemp+1
  4149     094C  3080               	movlw	128
  4150     094D  027F               	subwf	btemp+1,w
  4151     094E  1D03               	skipz
  4152     094F  2952               	goto	u4655
  4153     0950  3010               	movlw	16
  4154     0951  0246               	subwf	read_digital_keypad@long_pressed,w
  4155     0952                     u4655:
  4156     0952  1803               	skipnc
  4157     0953  2955               	goto	u4651
  4158     0954  2956               	goto	u4650
  4159     0955                     u4651:
  4160     0955  295F               	goto	l4711
  4161     0956                     u4650:
  4162     0956                     l4709:
  4163                           
  4164                           ;digital_keypad.c: 41:     {;digital_keypad.c: 42:         long_pressed++;
  4165     0956  3001               	movlw	1
  4166     0957  1283               	bcf	3,5	;RP0=0, select bank0
  4167     0958  1303               	bcf	3,6	;RP1=0, select bank0
  4168     0959  07C6               	addwf	read_digital_keypad@long_pressed,f
  4169     095A  1803               	skipnc
  4170     095B  0AC7               	incf	read_digital_keypad@long_pressed+1,f
  4171     095C  3000               	movlw	0
  4172     095D  07C7               	addwf	read_digital_keypad@long_pressed+1,f
  4173                           
  4174                           ;digital_keypad.c: 43:     }
  4175     095E  2997               	goto	l4733
  4176     095F                     l4711:
  4177     095F  037A               	decf	read_digital_keypad@once,w
  4178     0960  1D03               	btfss	3,2
  4179     0961  2963               	goto	u4661
  4180     0962  2964               	goto	u4660
  4181     0963                     u4661:
  4182     0963  297B               	goto	l4723
  4183     0964                     u4660:
  4184     0964                     l4713:
  4185     0964  3010               	movlw	16
  4186     0965  1283               	bcf	3,5	;RP0=0, select bank0
  4187     0966  1303               	bcf	3,6	;RP1=0, select bank0
  4188     0967  0646               	xorwf	read_digital_keypad@long_pressed,w
  4189     0968  0447               	iorwf	read_digital_keypad@long_pressed+1,w
  4190     0969  1D03               	btfss	3,2
  4191     096A  296C               	goto	u4671
  4192     096B  296D               	goto	u4670
  4193     096C                     u4671:
  4194     096C  297B               	goto	l4723
  4195     096D                     u4670:
  4196     096D                     l4715:
  4197     096D  3037               	movlw	55
  4198     096E  0672               	xorwf	read_digital_keypad@key,w
  4199     096F  1D03               	btfss	3,2
  4200     0970  2972               	goto	u4681
  4201     0971  2973               	goto	u4680
  4202     0972                     u4681:
  4203     0972  297B               	goto	l4723
  4204     0973                     u4680:
  4205     0973                     l4717:
  4206                           
  4207                           ;digital_keypad.c: 46:     {;digital_keypad.c: 47:         long_pressed++;
  4208     0973  3001               	movlw	1
  4209     0974  07C6               	addwf	read_digital_keypad@long_pressed,f
  4210     0975  1803               	skipnc
  4211     0976  0AC7               	incf	read_digital_keypad@long_pressed+1,f
  4212     0977  3000               	movlw	0
  4213     0978  07C7               	addwf	read_digital_keypad@long_pressed+1,f
  4214                           
  4215                           ;digital_keypad.c: 48:         return 0x80;
  4216     0979  3080               	movlw	128
  4217     097A  2998               	goto	l260
  4218     097B                     l4723:
  4219     097B  037A               	decf	read_digital_keypad@once,w
  4220     097C  1D03               	btfss	3,2
  4221     097D  297F               	goto	u4691
  4222     097E  2980               	goto	u4690
  4223     097F                     u4691:
  4224     097F  2997               	goto	l4733
  4225     0980                     u4690:
  4226     0980                     l4725:
  4227     0980  3010               	movlw	16
  4228     0981  1283               	bcf	3,5	;RP0=0, select bank0
  4229     0982  1303               	bcf	3,6	;RP1=0, select bank0
  4230     0983  0646               	xorwf	read_digital_keypad@long_pressed,w
  4231     0984  0447               	iorwf	read_digital_keypad@long_pressed+1,w
  4232     0985  1D03               	btfss	3,2
  4233     0986  2988               	goto	u4701
  4234     0987  2989               	goto	u4700
  4235     0988                     u4701:
  4236     0988  2997               	goto	l4733
  4237     0989                     u4700:
  4238     0989                     l4727:
  4239     0989  302F               	movlw	47
  4240     098A  0672               	xorwf	read_digital_keypad@key,w
  4241     098B  1D03               	btfss	3,2
  4242     098C  298E               	goto	u4711
  4243     098D  298F               	goto	u4710
  4244     098E                     u4711:
  4245     098E  2997               	goto	l4733
  4246     098F                     u4710:
  4247     098F                     l4729:
  4248                           
  4249                           ;digital_keypad.c: 52:     {;digital_keypad.c: 53:         long_pressed++;
  4250     098F  3001               	movlw	1
  4251     0990  07C6               	addwf	read_digital_keypad@long_pressed,f
  4252     0991  1803               	skipnc
  4253     0992  0AC7               	incf	read_digital_keypad@long_pressed+1,f
  4254     0993  3000               	movlw	0
  4255     0994  07C7               	addwf	read_digital_keypad@long_pressed+1,f
  4256                           
  4257                           ;digital_keypad.c: 54:         return 0x90;
  4258     0995  3090               	movlw	144
  4259     0996  2998               	goto	l260
  4260     0997                     l4733:
  4261                           
  4262                           ;digital_keypad.c: 57:     return 0x3F;
  4263     0997  303F               	movlw	63
  4264     0998                     l260:
  4265     0998  0008               	return
  4266     0999                     __end_of_read_digital_keypad:
  4267                           
  4268                           	psect	text4
  4269     1157                     __ptext4:	
  4270 ;; *************** function _read_adc *****************
  4271 ;; Defined at:
  4272 ;;		line 16 in file "adc.c"
  4273 ;; Parameters:    Size  Location     Type
  4274 ;;		None
  4275 ;; Auto vars:     Size  Location     Type
  4276 ;;  adc_reg_val     2    4[COMMON] unsigned short 
  4277 ;; Return value:  Size  Location     Type
  4278 ;;                  2    2[COMMON] unsigned short 
  4279 ;; Registers used:
  4280 ;;		wreg
  4281 ;; Tracked objects:
  4282 ;;		On entry : 0/0
  4283 ;;		On exit  : 0/0
  4284 ;;		Unchanged: 0/0
  4285 ;; Data sizes:     COMMON   BANK0   BANK1   BANK3   BANK2
  4286 ;;      Params:         2       0       0       0       0
  4287 ;;      Locals:         2       0       0       0       0
  4288 ;;      Temps:          0       0       0       0       0
  4289 ;;      Totals:         4       0       0       0       0
  4290 ;;Total ram usage:        4 bytes
  4291 ;; Hardware stack levels used: 1
  4292 ;; Hardware stack levels required when called: 1
  4293 ;; This function calls:
  4294 ;;		Nothing
  4295 ;; This function is called by:
  4296 ;;		_main
  4297 ;; This function uses a non-reentrant model
  4298 ;;
  4299                           
  4300     1157                     _read_adc:	
  4301                           ;psect for function _read_adc
  4302                           
  4303     1157                     l4133:	
  4304                           ;incstack = 0
  4305                           ; Regs used in _read_adc: [wreg]
  4306                           
  4307                           
  4308                           ;adc.c: 18:     unsigned short adc_reg_val;;adc.c: 21:     GO = 1;
  4309     1157  1283               	bcf	3,5	;RP0=0, select bank0
  4310     1158  1303               	bcf	3,6	;RP1=0, select bank0
  4311     1159  151F               	bsf	31,2	;volatile
  4312     115A                     l18:	
  4313                           ;adc.c: 24:     while (nDONE);
  4314                           
  4315     115A  191F               	btfsc	31,2	;volatile
  4316     115B  295D               	goto	u4011
  4317     115C  295E               	goto	u4010
  4318     115D                     u4011:
  4319     115D  295A               	goto	l18
  4320     115E                     u4010:
  4321     115E                     l4135:
  4322                           
  4323                           ;adc.c: 27:     adc_reg_val = (ADRESH << 8) | ADRESL;
  4324     115E  081E               	movf	30,w	;volatile
  4325     115F  00F5               	movwf	read_adc@adc_reg_val+1
  4326     1160  1683               	bsf	3,5	;RP0=1, select bank1
  4327     1161  1303               	bcf	3,6	;RP1=0, select bank1
  4328     1162  081E               	movf	30,w	;volatile
  4329     1163  00F4               	movwf	read_adc@adc_reg_val
  4330                           
  4331                           ;adc.c: 29:     return adc_reg_val;
  4332     1164  0875               	movf	read_adc@adc_reg_val+1,w
  4333     1165  00F3               	movwf	?_read_adc+1
  4334     1166  0874               	movf	read_adc@adc_reg_val,w
  4335     1167  00F2               	movwf	?_read_adc
  4336     1168                     l21:
  4337     1168  0008               	return
  4338     1169                     __end_of_read_adc:
  4339                           
  4340                           	psect	text5
  4341     0999                     __ptext5:	
  4342 ;; *************** function _login_menu *****************
  4343 ;; Defined at:
  4344 ;;		line 227 in file "car_black_box.c"
  4345 ;; Parameters:    Size  Location     Type
  4346 ;;  key             1    wreg     unsigned char 
  4347 ;;  reset_flag      1    5[BANK0 ] unsigned char 
  4348 ;; Auto vars:     Size  Location     Type
  4349 ;;  key             1    8[BANK0 ] unsigned char 
  4350 ;; Return value:  Size  Location     Type
  4351 ;;                  1    wreg      unsigned char 
  4352 ;; Registers used:
  4353 ;;		wreg, fsr0l, fsr0h, status,2, status,0, btemp+1, pclath, cstack
  4354 ;; Tracked objects:
  4355 ;;		On entry : 0/0
  4356 ;;		On exit  : 0/0
  4357 ;;		Unchanged: 0/0
  4358 ;; Data sizes:     COMMON   BANK0   BANK1   BANK3   BANK2
  4359 ;;      Params:         0       1       0       0       0
  4360 ;;      Locals:         0       1       0       0       0
  4361 ;;      Temps:          0       2       0       0       0
  4362 ;;      Totals:         0       4       0       0       0
  4363 ;;Total ram usage:        4 bytes
  4364 ;; Hardware stack levels used: 1
  4365 ;; Hardware stack levels required when called: 3
  4366 ;; This function calls:
  4367 ;;		_clcd_print
  4368 ;;		_clcd_putch
  4369 ;;		_clear_screen
  4370 ;; This function is called by:
  4371 ;;		_main
  4372 ;; This function uses a non-reentrant model
  4373 ;;
  4374                           
  4375     0999                     _login_menu:	
  4376                           ;psect for function _login_menu
  4377                           
  4378                           
  4379                           ;incstack = 0
  4380                           ; Regs used in _login_menu: [wreg-fsr0h+status,2+status,0+btemp+1+pclath+cstack]
  4381                           ;login_menu@key stored from wreg
  4382     0999  1283               	bcf	3,5	;RP0=0, select bank0
  4383     099A  1303               	bcf	3,6	;RP1=0, select bank0
  4384     099B  00A8               	movwf	login_menu@key
  4385     099C                     l4271:
  4386                           
  4387                           ;car_black_box.c: 227: unsigned char login_menu(unsigned char key, unsigned char reset_f
      +                          lag);car_black_box.c: 228: {;car_black_box.c: 229:     static char menu_pos;;car_black_b
      +                          ox.c: 231:     if (return_time == 0)
  4388     099C  085C               	movf	_return_time,w
  4389     099D  1D03               	btfss	3,2
  4390     099E  29A0               	goto	u4131
  4391     099F  29A1               	goto	u4130
  4392     09A0                     u4131:
  4393     09A0  29A3               	goto	l4277
  4394     09A1                     u4130:
  4395     09A1                     l4273:
  4396                           
  4397                           ;car_black_box.c: 232:     {;car_black_box.c: 233:         return 0x0A;
  4398     09A1  300A               	movlw	10
  4399     09A2  2A4F               	goto	l111
  4400     09A3                     l4277:
  4401                           
  4402                           ;car_black_box.c: 236:     if (reset_flag == 0x70)
  4403     09A3  3070               	movlw	112
  4404     09A4  0625               	xorwf	login_menu@reset_flag,w
  4405     09A5  1D03               	btfss	3,2
  4406     09A6  29A8               	goto	u4141
  4407     09A7  29A9               	goto	u4140
  4408     09A8                     u4141:
  4409     09A8  29B1               	goto	l4285
  4410     09A9                     u4140:
  4411     09A9                     l4279:
  4412                           
  4413                           ;car_black_box.c: 237:     {;car_black_box.c: 238:         return_time = 15;
  4414     09A9  300F               	movlw	15
  4415     09AA  00DC               	movwf	_return_time
  4416     09AB                     l4281:
  4417                           
  4418                           ;car_black_box.c: 239:         menu_pos = 0;
  4419     09AB  01D5               	clrf	login_menu@menu_pos
  4420     09AC                     l4283:
  4421                           
  4422                           ;car_black_box.c: 240:         clear_screen();
  4423     09AC  160A  118A  2134  120A  158A  	fcall	_clear_screen
  4424     09B1                     l4285:
  4425                           
  4426                           ;car_black_box.c: 243:     if (key == 0x37 && menu_pos > 0)
  4427     09B1  3037               	movlw	55
  4428     09B2  1283               	bcf	3,5	;RP0=0, select bank0
  4429     09B3  1303               	bcf	3,6	;RP1=0, select bank0
  4430     09B4  0628               	xorwf	login_menu@key,w
  4431     09B5  1D03               	btfss	3,2
  4432     09B6  29B8               	goto	u4151
  4433     09B7  29B9               	goto	u4150
  4434     09B8                     u4151:
  4435     09B8  29C8               	goto	l4295
  4436     09B9                     u4150:
  4437     09B9                     l4287:
  4438     09B9  0855               	movf	login_menu@menu_pos,w
  4439     09BA  1903               	btfsc	3,2
  4440     09BB  29BD               	goto	u4161
  4441     09BC  29BE               	goto	u4160
  4442     09BD                     u4161:
  4443     09BD  29C8               	goto	l4295
  4444     09BE                     u4160:
  4445     09BE                     l4289:
  4446                           
  4447                           ;car_black_box.c: 244:     {;car_black_box.c: 245:         return_time = 15;
  4448     09BE  300F               	movlw	15
  4449     09BF  00DC               	movwf	_return_time
  4450     09C0                     l4291:
  4451                           
  4452                           ;car_black_box.c: 246:         menu_pos--;
  4453     09C0  3001               	movlw	1
  4454     09C1  02D5               	subwf	login_menu@menu_pos,f
  4455     09C2                     l4293:
  4456                           
  4457                           ;car_black_box.c: 247:         clear_screen();
  4458     09C2  160A  118A  2134  120A  158A  	fcall	_clear_screen
  4459                           
  4460                           ;car_black_box.c: 248:     }
  4461     09C7  29D9               	goto	l4305
  4462     09C8                     l4295:
  4463     09C8  302F               	movlw	47
  4464     09C9  0628               	xorwf	login_menu@key,w
  4465     09CA  1D03               	btfss	3,2
  4466     09CB  29CD               	goto	u4171
  4467     09CC  29CE               	goto	u4170
  4468     09CD                     u4171:
  4469     09CD  29D9               	goto	l4305
  4470     09CE                     u4170:
  4471     09CE                     l4297:
  4472     09CE  3004               	movlw	4
  4473     09CF  0255               	subwf	login_menu@menu_pos,w
  4474     09D0  1803               	skipnc
  4475     09D1  29D3               	goto	u4181
  4476     09D2  29D4               	goto	u4180
  4477     09D3                     u4181:
  4478     09D3  29D9               	goto	l4305
  4479     09D4                     u4180:
  4480     09D4                     l4299:
  4481                           
  4482                           ;car_black_box.c: 250:     {;car_black_box.c: 251:         return_time = 15;
  4483     09D4  300F               	movlw	15
  4484     09D5  00DC               	movwf	_return_time
  4485     09D6                     l4301:
  4486                           
  4487                           ;car_black_box.c: 252:         menu_pos++;
  4488     09D6  3001               	movlw	1
  4489     09D7  07D5               	addwf	login_menu@menu_pos,f
  4490     09D8  29C2               	goto	l4293
  4491     09D9                     l4305:
  4492                           
  4493                           ;car_black_box.c: 256:     if (menu_pos < 4)
  4494     09D9  3004               	movlw	4
  4495     09DA  1283               	bcf	3,5	;RP0=0, select bank0
  4496     09DB  1303               	bcf	3,6	;RP1=0, select bank0
  4497     09DC  0255               	subwf	login_menu@menu_pos,w
  4498     09DD  1803               	skipnc
  4499     09DE  29E0               	goto	u4191
  4500     09DF  29E1               	goto	u4190
  4501     09E0                     u4191:
  4502     09E0  2A14               	goto	l4313
  4503     09E1                     u4190:
  4504     09E1                     l4307:
  4505                           
  4506                           ;car_black_box.c: 257:     {;car_black_box.c: 258:         clcd_putch('*', (0x80 + 0));
  4507     09E1  3080               	movlw	128
  4508     09E2  00A3               	movwf	clcd_putch@addr
  4509     09E3  302A               	movlw	42
  4510     09E4  160A  118A  217C  120A  158A  	fcall	_clcd_putch
  4511     09E9                     l4309:
  4512                           
  4513                           ;car_black_box.c: 259:         clcd_print(menu[menu_pos], (0x80 + 2));
  4514     09E9  1283               	bcf	3,5	;RP0=0, select bank0
  4515     09EA  1303               	bcf	3,6	;RP1=0, select bank0
  4516     09EB  0855               	movf	login_menu@menu_pos,w
  4517     09EC  00A6               	movwf	??_login_menu
  4518     09ED  0726               	addwf	??_login_menu,w
  4519     09EE  3ECF               	addlw	(low (_menu| 0))& (0+255)
  4520     09EF  0084               	movwf	4
  4521     09F0  1383               	bcf	3,7	;select IRP bank1
  4522     09F1  0800               	movf	0,w
  4523     09F2  00F6               	movwf	clcd_print@str
  4524     09F3  0A84               	incf	4,f
  4525     09F4  0800               	movf	0,w
  4526     09F5  0384               	decf	4,f
  4527     09F6  00F7               	movwf	clcd_print@str+1
  4528     09F7  3082               	movlw	130
  4529     09F8  00F8               	movwf	clcd_print@addr
  4530     09F9  160A  118A  232F  120A  158A  	fcall	_clcd_print
  4531     09FE                     l4311:
  4532                           
  4533                           ;car_black_box.c: 260:         clcd_print(menu[menu_pos + 1], (0xC0 + 2));
  4534     09FE  1283               	bcf	3,5	;RP0=0, select bank0
  4535     09FF  1303               	bcf	3,6	;RP1=0, select bank0
  4536     0A00  0855               	movf	login_menu@menu_pos,w
  4537     0A01  00A6               	movwf	??_login_menu
  4538     0A02  0726               	addwf	??_login_menu,w
  4539     0A03  3ED1               	addlw	(low ((_menu| 0+2)))& (0+255)
  4540     0A04  0084               	movwf	4
  4541     0A05  1383               	bcf	3,7	;select IRP bank1
  4542     0A06  0800               	movf	0,w
  4543     0A07  00F6               	movwf	clcd_print@str
  4544     0A08  0A84               	incf	4,f
  4545     0A09  0800               	movf	0,w
  4546     0A0A  0384               	decf	4,f
  4547     0A0B  00F7               	movwf	clcd_print@str+1
  4548     0A0C  30C2               	movlw	194
  4549     0A0D  00F8               	movwf	clcd_print@addr
  4550     0A0E  160A  118A  232F  120A  158A  	fcall	_clcd_print
  4551                           
  4552                           ;car_black_box.c: 261:     }
  4553     0A13  2A4C               	goto	l4319
  4554     0A14                     l4313:
  4555     0A14  3004               	movlw	4
  4556     0A15  0655               	xorwf	login_menu@menu_pos,w
  4557     0A16  1D03               	btfss	3,2
  4558     0A17  2A19               	goto	u4201
  4559     0A18  2A1A               	goto	u4200
  4560     0A19                     u4201:
  4561     0A19  2A4C               	goto	l4319
  4562     0A1A                     u4200:
  4563     0A1A                     l4315:
  4564                           
  4565                           ;car_black_box.c: 263:     {;car_black_box.c: 264:         clcd_print(menu[menu_pos - 1]
      +                          , (0x80 + 2));
  4566     0A1A  0855               	movf	login_menu@menu_pos,w
  4567     0A1B  00A6               	movwf	??_login_menu
  4568     0A1C  0726               	addwf	??_login_menu,w
  4569     0A1D  3ECD               	addlw	(low ((_menu| 0+254)))& (0+255)
  4570     0A1E  0084               	movwf	4
  4571     0A1F  1383               	bcf	3,7	;select IRP bank1
  4572     0A20  0800               	movf	0,w
  4573     0A21  00F6               	movwf	clcd_print@str
  4574     0A22  0A84               	incf	4,f
  4575     0A23  0800               	movf	0,w
  4576     0A24  0384               	decf	4,f
  4577     0A25  00F7               	movwf	clcd_print@str+1
  4578     0A26  3082               	movlw	130
  4579     0A27  00F8               	movwf	clcd_print@addr
  4580     0A28  160A  118A  232F  120A  158A  	fcall	_clcd_print
  4581                           
  4582                           ;car_black_box.c: 265:         clcd_print(menu[menu_pos], (0xC0 + 2));
  4583     0A2D  1283               	bcf	3,5	;RP0=0, select bank0
  4584     0A2E  1303               	bcf	3,6	;RP1=0, select bank0
  4585     0A2F  0855               	movf	login_menu@menu_pos,w
  4586     0A30  00A6               	movwf	??_login_menu
  4587     0A31  0726               	addwf	??_login_menu,w
  4588     0A32  3ECF               	addlw	(low (_menu| 0))& (0+255)
  4589     0A33  0084               	movwf	4
  4590     0A34  1383               	bcf	3,7	;select IRP bank1
  4591     0A35  0800               	movf	0,w
  4592     0A36  00F6               	movwf	clcd_print@str
  4593     0A37  0A84               	incf	4,f
  4594     0A38  0800               	movf	0,w
  4595     0A39  0384               	decf	4,f
  4596     0A3A  00F7               	movwf	clcd_print@str+1
  4597     0A3B  30C2               	movlw	194
  4598     0A3C  00F8               	movwf	clcd_print@addr
  4599     0A3D  160A  118A  232F  120A  158A  	fcall	_clcd_print
  4600     0A42                     l4317:
  4601                           
  4602                           ;car_black_box.c: 266:         clcd_putch('*', (0xC0 + 0));
  4603     0A42  30C0               	movlw	192
  4604     0A43  1283               	bcf	3,5	;RP0=0, select bank0
  4605     0A44  1303               	bcf	3,6	;RP1=0, select bank0
  4606     0A45  00A3               	movwf	clcd_putch@addr
  4607     0A46  302A               	movlw	42
  4608     0A47  160A  118A  217C  120A  158A  	fcall	_clcd_putch
  4609     0A4C                     l4319:
  4610                           
  4611                           ;car_black_box.c: 268:     return menu_pos;
  4612     0A4C  1283               	bcf	3,5	;RP0=0, select bank0
  4613     0A4D  1303               	bcf	3,6	;RP1=0, select bank0
  4614     0A4E  0855               	movf	login_menu@menu_pos,w
  4615     0A4F                     l111:
  4616     0A4F  0008               	return
  4617     0A50                     __end_of_login_menu:
  4618                           
  4619                           	psect	text6
  4620     0E4A                     __ptext6:	
  4621 ;; *************** function _login *****************
  4622 ;; Defined at:
  4623 ;;		line 111 in file "car_black_box.c"
  4624 ;; Parameters:    Size  Location     Type
  4625 ;;  key             1    wreg     unsigned char 
  4626 ;;  reset_flag      1    5[BANK0 ] unsigned char 
  4627 ;; Auto vars:     Size  Location     Type
  4628 ;;  key             1   13[BANK0 ] unsigned char 
  4629 ;;  j               2   14[BANK0 ] int 
  4630 ;;  spassword       4    9[BANK0 ] unsigned char [4]
  4631 ;; Return value:  Size  Location     Type
  4632 ;;                  1    wreg      unsigned char 
  4633 ;; Registers used:
  4634 ;;		wreg, fsr0l, fsr0h, status,2, status,0, btemp+1, pclath, cstack
  4635 ;; Tracked objects:
  4636 ;;		On entry : 0/0
  4637 ;;		On exit  : 0/0
  4638 ;;		Unchanged: 0/0
  4639 ;; Data sizes:     COMMON   BANK0   BANK1   BANK3   BANK2
  4640 ;;      Params:         0       1       0       0       0
  4641 ;;      Locals:         0       7       0       0       0
  4642 ;;      Temps:          0       3       0       0       0
  4643 ;;      Totals:         0      11       0       0       0
  4644 ;;Total ram usage:       11 bytes
  4645 ;; Hardware stack levels used: 1
  4646 ;; Hardware stack levels required when called: 5
  4647 ;; This function calls:
  4648 ;;		___lwdiv
  4649 ;;		___lwmod
  4650 ;;		_clcd_print
  4651 ;;		_clcd_putch
  4652 ;;		_clcd_write
  4653 ;;		_clear_screen
  4654 ;;		_ext_eeprom_read
  4655 ;;		_strncmp
  4656 ;; This function is called by:
  4657 ;;		_main
  4658 ;; This function uses a non-reentrant model
  4659 ;;
  4660                           
  4661     0E4A                     _login:	
  4662                           ;psect for function _login
  4663                           
  4664                           
  4665                           ;incstack = 0
  4666                           ; Regs used in _login: [wreg-fsr0h+status,2+status,0+btemp+1+pclath+cstack]
  4667                           ;login@key stored from wreg
  4668     0E4A  1283               	bcf	3,5	;RP0=0, select bank0
  4669     0E4B  1303               	bcf	3,6	;RP1=0, select bank0
  4670     0E4C  00AD               	movwf	login@key
  4671     0E4D                     l4155:
  4672                           
  4673                           ;car_black_box.c: 111: unsigned char login(unsigned char key, unsigned char reset_flag);
      +                          car_black_box.c: 112: {;car_black_box.c: 113:     static char npassword[4];;car_black_bo
      +                          x.c: 114:     char spassword[4];;car_black_box.c: 115:     static char i;;car_black_box.
      +                          c: 116:     static unsigned char attempts_rem = 3;;car_black_box.c: 118:     if (reset_f
      +                          lag == 0x60)
  4674     0E4D  3060               	movlw	96
  4675     0E4E  0625               	xorwf	login@reset_flag,w
  4676     0E4F  1D03               	btfss	3,2
  4677     0E50  2E52               	goto	u4021
  4678     0E51  2E53               	goto	u4020
  4679     0E52                     u4021:
  4680     0E52  2E62               	goto	l4165
  4681     0E53                     u4020:
  4682     0E53                     l4157:
  4683                           
  4684                           ;car_black_box.c: 119:     {;car_black_box.c: 120:         attempts_rem = 3;
  4685     0E53  3003               	movlw	3
  4686     0E54  00DB               	movwf	login@attempts_rem
  4687     0E55                     l4159:
  4688                           
  4689                           ;car_black_box.c: 122:         npassword[0] = '\0';
  4690     0E55  1683               	bsf	3,5	;RP0=1, select bank1
  4691     0E56  1303               	bcf	3,6	;RP1=0, select bank1
  4692     0E57  01BF               	clrf	login@npassword^(0+128)
  4693                           
  4694                           ;car_black_box.c: 123:         npassword[1] = '\0';
  4695     0E58  01C0               	clrf	(login@npassword^(0+128)+1)
  4696                           
  4697                           ;car_black_box.c: 124:         npassword[2] = '\0';
  4698     0E59  01C1               	clrf	(login@npassword^(0+128)+2)
  4699                           
  4700                           ;car_black_box.c: 125:         npassword[3] = '\0';
  4701     0E5A  01C2               	clrf	(login@npassword^(0+128)+3)
  4702                           
  4703                           ;car_black_box.c: 127:         i = 0;
  4704     0E5B  1283               	bcf	3,5	;RP0=0, select bank0
  4705     0E5C  1303               	bcf	3,6	;RP1=0, select bank0
  4706     0E5D  01D6               	clrf	login@i
  4707     0E5E                     l4161:
  4708                           
  4709                           ;car_black_box.c: 128:         key = 0x3F;
  4710     0E5E  303F               	movlw	63
  4711     0E5F  00AD               	movwf	login@key
  4712     0E60                     l4163:
  4713                           
  4714                           ;car_black_box.c: 129:         return_time = 5;
  4715     0E60  3005               	movlw	5
  4716     0E61  00DC               	movwf	_return_time
  4717     0E62                     l4165:
  4718                           
  4719                           ;car_black_box.c: 132:     if (return_time == 0)
  4720     0E62  085C               	movf	_return_time,w
  4721     0E63  1D03               	btfss	3,2
  4722     0E64  2E66               	goto	u4031
  4723     0E65  2E67               	goto	u4030
  4724     0E66                     u4031:
  4725     0E66  2E69               	goto	l4171
  4726     0E67                     u4030:
  4727     0E67                     l4167:
  4728                           
  4729                           ;car_black_box.c: 133:     {;car_black_box.c: 134:         return 0x0A;
  4730     0E67  300A               	movlw	10
  4731     0E68  2FFF               	goto	l92
  4732     0E69                     l4171:
  4733                           
  4734                           ;car_black_box.c: 137:     _delay((unsigned long)((50)*(20000000/4000.0)));
  4735     0E69  3002               	movlw	2
  4736     0E6A  1283               	bcf	3,5	;RP0=0, select bank0
  4737     0E6B  1303               	bcf	3,6	;RP1=0, select bank0
  4738     0E6C  00A8               	movwf	??_login+2
  4739     0E6D  3045               	movlw	69
  4740     0E6E  00A7               	movwf	??_login+1
  4741     0E6F  30A9               	movlw	169
  4742     0E70  00A6               	movwf	??_login
  4743     0E71                     u5017:
  4744     0E71  0BA6               	decfsz	??_login,f
  4745     0E72  2E71               	goto	u5017
  4746     0E73  0BA7               	decfsz	??_login+1,f
  4747     0E74  2E71               	goto	u5017
  4748     0E75  0BA8               	decfsz	??_login+2,f
  4749     0E76  2E71               	goto	u5017
  4750     0E77                     l4173:
  4751                           
  4752                           ;car_black_box.c: 139:     if (key == 0x37 && i < 4)
  4753     0E77  3037               	movlw	55
  4754     0E78  1283               	bcf	3,5	;RP0=0, select bank0
  4755     0E79  1303               	bcf	3,6	;RP1=0, select bank0
  4756     0E7A  062D               	xorwf	login@key,w
  4757     0E7B  1D03               	btfss	3,2
  4758     0E7C  2E7E               	goto	u4041
  4759     0E7D  2E7F               	goto	u4040
  4760     0E7E                     u4041:
  4761     0E7E  2E9B               	goto	l4185
  4762     0E7F                     u4040:
  4763     0E7F                     l4175:
  4764     0E7F  3004               	movlw	4
  4765     0E80  0256               	subwf	login@i,w
  4766     0E81  1803               	skipnc
  4767     0E82  2E84               	goto	u4051
  4768     0E83  2E85               	goto	u4050
  4769     0E84                     u4051:
  4770     0E84  2E9B               	goto	l4185
  4771     0E85                     u4050:
  4772     0E85                     l4177:
  4773                           
  4774                           ;car_black_box.c: 140:     {;car_black_box.c: 141:         npassword[i] = '1';
  4775     0E85  0856               	movf	login@i,w
  4776     0E86  3EBF               	addlw	(low (login@npassword| 0))& (0+255)
  4777     0E87  0084               	movwf	4
  4778     0E88  3031               	movlw	49
  4779     0E89  1383               	bcf	3,7	;select IRP bank1
  4780     0E8A  0080               	movwf	0
  4781     0E8B                     l4179:
  4782                           
  4783                           ;car_black_box.c: 142:         clcd_putch('*', (0xC0 + 6 + i));
  4784     0E8B  0856               	movf	login@i,w
  4785     0E8C  3EC6               	addlw	198
  4786     0E8D  00A3               	movwf	clcd_putch@addr
  4787     0E8E  302A               	movlw	42
  4788     0E8F  160A  118A  217C  120A  158A  	fcall	_clcd_putch
  4789     0E94                     l4181:
  4790                           
  4791                           ;car_black_box.c: 143:         i++;
  4792     0E94  3001               	movlw	1
  4793     0E95  1283               	bcf	3,5	;RP0=0, select bank0
  4794     0E96  1303               	bcf	3,6	;RP1=0, select bank0
  4795     0E97  07D6               	addwf	login@i,f
  4796     0E98                     l4183:
  4797                           
  4798                           ;car_black_box.c: 144:         return_time = 5;
  4799     0E98  3005               	movlw	5
  4800     0E99  00DC               	movwf	_return_time
  4801                           
  4802                           ;car_black_box.c: 145:     }
  4803     0E9A  2EB7               	goto	l4197
  4804     0E9B                     l4185:
  4805     0E9B  302F               	movlw	47
  4806     0E9C  062D               	xorwf	login@key,w
  4807     0E9D  1D03               	btfss	3,2
  4808     0E9E  2EA0               	goto	u4061
  4809     0E9F  2EA1               	goto	u4060
  4810     0EA0                     u4061:
  4811     0EA0  2EB7               	goto	l4197
  4812     0EA1                     u4060:
  4813     0EA1                     l4187:
  4814     0EA1  3004               	movlw	4
  4815     0EA2  0256               	subwf	login@i,w
  4816     0EA3  1803               	skipnc
  4817     0EA4  2EA6               	goto	u4071
  4818     0EA5  2EA7               	goto	u4070
  4819     0EA6                     u4071:
  4820     0EA6  2EB7               	goto	l4197
  4821     0EA7                     u4070:
  4822     0EA7                     l4189:
  4823                           
  4824                           ;car_black_box.c: 147:     {;car_black_box.c: 148:         npassword[i] = '0';
  4825     0EA7  0856               	movf	login@i,w
  4826     0EA8  3EBF               	addlw	(low (login@npassword| 0))& (0+255)
  4827     0EA9  0084               	movwf	4
  4828     0EAA  3030               	movlw	48
  4829     0EAB  1383               	bcf	3,7	;select IRP bank1
  4830     0EAC  0080               	movwf	0
  4831     0EAD                     l4191:
  4832                           
  4833                           ;car_black_box.c: 149:         clcd_putch('*', (0xC0 + 6 + i));
  4834     0EAD  0856               	movf	login@i,w
  4835     0EAE  3EC6               	addlw	198
  4836     0EAF  00A3               	movwf	clcd_putch@addr
  4837     0EB0  302A               	movlw	42
  4838     0EB1  160A  118A  217C  120A  158A  	fcall	_clcd_putch
  4839     0EB6  2E94               	goto	l4181
  4840     0EB7                     l4197:
  4841                           
  4842                           ;car_black_box.c: 154:     if (i == 4)
  4843     0EB7  3004               	movlw	4
  4844     0EB8  0656               	xorwf	login@i,w
  4845     0EB9  1D03               	btfss	3,2
  4846     0EBA  2EBC               	goto	u4081
  4847     0EBB  2EBD               	goto	u4080
  4848     0EBC                     u4081:
  4849     0EBC  2FFE               	goto	l4267
  4850     0EBD                     u4080:
  4851     0EBD                     l4199:
  4852                           
  4853                           ;car_black_box.c: 155:     {;car_black_box.c: 156:         for (int j = 0; j < 4; j++)
  4854     0EBD  01AE               	clrf	login@j
  4855     0EBE  01AF               	clrf	login@j+1
  4856     0EBF                     l4205:
  4857                           
  4858                           ;car_black_box.c: 157:         {;car_black_box.c: 158:             spassword[j] = ext_ee
      +                          prom_read(j);
  4859     0EBF  1283               	bcf	3,5	;RP0=0, select bank0
  4860     0EC0  1303               	bcf	3,6	;RP1=0, select bank0
  4861     0EC1  082E               	movf	login@j,w
  4862     0EC2  3E29               	addlw	(low (login@spassword| 0))& (0+255)
  4863     0EC3  0084               	movwf	4
  4864     0EC4  082E               	movf	login@j,w
  4865     0EC5  160A  118A  2304  120A  158A  	fcall	_ext_eeprom_read
  4866     0ECA  1383               	bcf	3,7	;select IRP bank0
  4867     0ECB  0080               	movwf	0
  4868     0ECC                     l4207:
  4869                           
  4870                           ;car_black_box.c: 159:         }
  4871     0ECC  3001               	movlw	1
  4872     0ECD  1283               	bcf	3,5	;RP0=0, select bank0
  4873     0ECE  1303               	bcf	3,6	;RP1=0, select bank0
  4874     0ECF  07AE               	addwf	login@j,f
  4875     0ED0  1803               	skipnc
  4876     0ED1  0AAF               	incf	login@j+1,f
  4877     0ED2  3000               	movlw	0
  4878     0ED3  07AF               	addwf	login@j+1,f
  4879     0ED4                     l4209:
  4880     0ED4  082F               	movf	login@j+1,w
  4881     0ED5  3A80               	xorlw	128
  4882     0ED6  00FF               	movwf	btemp+1
  4883     0ED7  3080               	movlw	128
  4884     0ED8  027F               	subwf	btemp+1,w
  4885     0ED9  1D03               	skipz
  4886     0EDA  2EDD               	goto	u4095
  4887     0EDB  3004               	movlw	4
  4888     0EDC  022E               	subwf	login@j,w
  4889     0EDD                     u4095:
  4890     0EDD  1C03               	skipc
  4891     0EDE  2EE0               	goto	u4091
  4892     0EDF  2EE1               	goto	u4090
  4893     0EE0                     u4091:
  4894     0EE0  2EBF               	goto	l4205
  4895     0EE1                     u4090:
  4896     0EE1                     l4211:
  4897                           
  4898                           ;car_black_box.c: 161:         if (strncmp(spassword, npassword, 4) == 0)
  4899     0EE1  3029               	movlw	(low (login@spassword| 0))& (0+255)
  4900     0EE2  00F2               	movwf	strncmp@l
  4901     0EE3  30BF               	movlw	(low (login@npassword| 0))& (0+255)
  4902     0EE4  00F3               	movwf	strncmp@r
  4903     0EE5  3004               	movlw	4
  4904     0EE6  00F4               	movwf	strncmp@n
  4905     0EE7  3000               	movlw	0
  4906     0EE8  00F5               	movwf	strncmp@n+1
  4907     0EE9  160A  118A  2531  120A  158A  	fcall	_strncmp
  4908     0EEE  0872               	movf	?_strncmp,w
  4909     0EEF  0473               	iorwf	?_strncmp+1,w
  4910     0EF0  1D03               	btfss	3,2
  4911     0EF1  2EF3               	goto	u4101
  4912     0EF2  2EF4               	goto	u4100
  4913     0EF3                     u4101:
  4914     0EF3  2F22               	goto	l4227
  4915     0EF4                     u4100:
  4916     0EF4                     l4213:
  4917                           
  4918                           ;car_black_box.c: 162:         {;car_black_box.c: 164:             clear_screen();
  4919     0EF4  160A  118A  2134  120A  158A  	fcall	_clear_screen
  4920                           
  4921                           ;car_black_box.c: 166:             clcd_write(0x0C, 0);
  4922     0EF9  01F2               	clrf	clcd_write@mode
  4923     0EFA  300C               	movlw	12
  4924     0EFB  160A  118A  21AF  120A  158A  	fcall	_clcd_write
  4925     0F00                     l4215:
  4926                           
  4927                           ;car_black_box.c: 167:             _delay((unsigned long)((100)*(20000000/4000000.0)));
  4928     0F00  30A5               	movlw	165
  4929     0F01  1283               	bcf	3,5	;RP0=0, select bank0
  4930     0F02  1303               	bcf	3,6	;RP1=0, select bank0
  4931     0F03  00A6               	movwf	??_login
  4932     0F04                     u5027:
  4933     0F04  0BA6               	decfsz	??_login,f
  4934     0F05  2F04               	goto	u5027
  4935     0F06  2F07               	nop2
  4936     0F07                     l4217:
  4937                           
  4938                           ;car_black_box.c: 170:             clcd_print("Login Success", (0x80 + 1));
  4939     0F07  304C               	movlw	low (STR_7| (0+32768))
  4940     0F08  00F6               	movwf	clcd_print@str
  4941     0F09  3088               	movlw	high (STR_7| (0+32768))
  4942     0F0A  00F7               	movwf	clcd_print@str+1
  4943     0F0B  3081               	movlw	129
  4944     0F0C  00F8               	movwf	clcd_print@addr
  4945     0F0D  160A  118A  232F  120A  158A  	fcall	_clcd_print
  4946     0F12                     l4219:
  4947                           
  4948                           ;car_black_box.c: 171:             _delay((unsigned long)((3000)*(20000000/4000.0)));
  4949     0F12  304D               	movlw	77
  4950     0F13  1283               	bcf	3,5	;RP0=0, select bank0
  4951     0F14  1303               	bcf	3,6	;RP1=0, select bank0
  4952     0F15  00A8               	movwf	??_login+2
  4953     0F16  3019               	movlw	25
  4954     0F17  00A7               	movwf	??_login+1
  4955     0F18  304F               	movlw	79
  4956     0F19  00A6               	movwf	??_login
  4957     0F1A                     u5037:
  4958     0F1A  0BA6               	decfsz	??_login,f
  4959     0F1B  2F1A               	goto	u5037
  4960     0F1C  0BA7               	decfsz	??_login+1,f
  4961     0F1D  2F1A               	goto	u5037
  4962     0F1E  0BA8               	decfsz	??_login+2,f
  4963     0F1F  2F1A               	goto	u5037
  4964     0F20                     l4221:
  4965                           
  4966                           ;car_black_box.c: 173:             return 0x0B;
  4967     0F20  300B               	movlw	11
  4968     0F21  2FFF               	goto	l92
  4969     0F22                     l4227:
  4970                           
  4971                           ;car_black_box.c: 176:         {;car_black_box.c: 177:             attempts_rem--;
  4972     0F22  3001               	movlw	1
  4973     0F23  1283               	bcf	3,5	;RP0=0, select bank0
  4974     0F24  1303               	bcf	3,6	;RP1=0, select bank0
  4975     0F25  02DB               	subwf	login@attempts_rem,f
  4976                           
  4977                           ;car_black_box.c: 179:             if (attempts_rem == 0)
  4978     0F26  085B               	movf	login@attempts_rem,w
  4979     0F27  1D03               	btfss	3,2
  4980     0F28  2F2A               	goto	u4111
  4981     0F29  2F2B               	goto	u4110
  4982     0F2A                     u4111:
  4983     0F2A  2F9F               	goto	l4245
  4984     0F2B                     u4110:
  4985     0F2B                     l4229:
  4986                           
  4987                           ;car_black_box.c: 180:             {;car_black_box.c: 181:                 clear_screen(
      +                          );
  4988     0F2B  160A  118A  2134  120A  158A  	fcall	_clear_screen
  4989                           
  4990                           ;car_black_box.c: 183:                 clcd_write(0x0C, 0);
  4991     0F30  01F2               	clrf	clcd_write@mode
  4992     0F31  300C               	movlw	12
  4993     0F32  160A  118A  21AF  120A  158A  	fcall	_clcd_write
  4994     0F37                     l4231:
  4995                           
  4996                           ;car_black_box.c: 184:                 _delay((unsigned long)((100)*(20000000/4000000.0)
      +                          ));
  4997     0F37  30A5               	movlw	165
  4998     0F38  1283               	bcf	3,5	;RP0=0, select bank0
  4999     0F39  1303               	bcf	3,6	;RP1=0, select bank0
  5000     0F3A  00A6               	movwf	??_login
  5001     0F3B                     u5047:
  5002     0F3B  0BA6               	decfsz	??_login,f
  5003     0F3C  2F3B               	goto	u5047
  5004     0F3D  2F3E               	nop2
  5005     0F3E                     l4233:
  5006                           
  5007                           ;car_black_box.c: 186:                 clcd_print("You are blocked", (0x80 + 0));
  5008     0F3E  3011               	movlw	low (STR_8| (0+32768))
  5009     0F3F  00F6               	movwf	clcd_print@str
  5010     0F40  3088               	movlw	high (STR_8| (0+32768))
  5011     0F41  00F7               	movwf	clcd_print@str+1
  5012     0F42  3080               	movlw	128
  5013     0F43  00F8               	movwf	clcd_print@addr
  5014     0F44  160A  118A  232F  120A  158A  	fcall	_clcd_print
  5015     0F49                     l4235:
  5016                           
  5017                           ;car_black_box.c: 187:                 clcd_print("Wait for", (0xC0 + 0));
  5018     0F49  30B7               	movlw	low (STR_9| (0+32768))
  5019     0F4A  00F6               	movwf	clcd_print@str
  5020     0F4B  3088               	movlw	high (STR_9| (0+32768))
  5021     0F4C  00F7               	movwf	clcd_print@str+1
  5022     0F4D  30C0               	movlw	192
  5023     0F4E  00F8               	movwf	clcd_print@addr
  5024     0F4F  160A  118A  232F  120A  158A  	fcall	_clcd_print
  5025     0F54                     l4237:
  5026                           
  5027                           ;car_black_box.c: 188:                 clcd_print("secs ", (0xC0 + 12));
  5028     0F54  30CE               	movlw	low (STR_10| (0+32768))
  5029     0F55  00F6               	movwf	clcd_print@str
  5030     0F56  3088               	movlw	high (STR_10| (0+32768))
  5031     0F57  00F7               	movwf	clcd_print@str+1
  5032     0F58  30CC               	movlw	204
  5033     0F59  00F8               	movwf	clcd_print@addr
  5034     0F5A  160A  118A  232F  120A  158A  	fcall	_clcd_print
  5035     0F5F                     l4239:
  5036                           
  5037                           ;car_black_box.c: 191:                 sec = 60;
  5038     0F5F  303C               	movlw	60
  5039     0F60  1283               	bcf	3,5	;RP0=0, select bank0
  5040     0F61  1303               	bcf	3,6	;RP1=0, select bank0
  5041     0F62  00CE               	movwf	_sec
  5042     0F63  3000               	movlw	0
  5043     0F64  00CF               	movwf	_sec+1
  5044                           
  5045                           ;car_black_box.c: 193:                 while (sec)
  5046     0F65  2F94               	goto	l4243
  5047     0F66                     l4241:
  5048                           
  5049                           ;car_black_box.c: 194:                 {;car_black_box.c: 195:                     clcd_
      +                          putch(sec / 10 + '0', (0xC0 + 9));
  5050     0F66  30C9               	movlw	201
  5051     0F67  00A3               	movwf	clcd_putch@addr
  5052     0F68  300A               	movlw	10
  5053     0F69  00F6               	movwf	___lwdiv@divisor
  5054     0F6A  3000               	movlw	0
  5055     0F6B  00F7               	movwf	___lwdiv@divisor+1
  5056     0F6C  084F               	movf	_sec+1,w
  5057     0F6D  00F9               	movwf	___lwdiv@dividend+1
  5058     0F6E  084E               	movf	_sec,w
  5059     0F6F  00F8               	movwf	___lwdiv@dividend
  5060     0F70  160A  118A  24ED  120A  158A  	fcall	___lwdiv
  5061     0F75  0876               	movf	?___lwdiv,w
  5062     0F76  3E30               	addlw	48
  5063     0F77  160A  118A  217C  120A  158A  	fcall	_clcd_putch
  5064                           
  5065                           ;car_black_box.c: 196:                     clcd_putch(sec % 10 + '0', (0xC0 + 10));
  5066     0F7C  30CA               	movlw	202
  5067     0F7D  1283               	bcf	3,5	;RP0=0, select bank0
  5068     0F7E  1303               	bcf	3,6	;RP1=0, select bank0
  5069     0F7F  00A3               	movwf	clcd_putch@addr
  5070     0F80  300A               	movlw	10
  5071     0F81  00F2               	movwf	___lwmod@divisor
  5072     0F82  3000               	movlw	0
  5073     0F83  00F3               	movwf	___lwmod@divisor+1
  5074     0F84  084F               	movf	_sec+1,w
  5075     0F85  00F5               	movwf	___lwmod@dividend+1
  5076     0F86  084E               	movf	_sec,w
  5077     0F87  00F4               	movwf	___lwmod@dividend
  5078     0F88  160A  118A  23F8  120A  158A  	fcall	___lwmod
  5079     0F8D  0872               	movf	?___lwmod,w
  5080     0F8E  3E30               	addlw	48
  5081     0F8F  160A  118A  217C  120A  158A  	fcall	_clcd_putch
  5082     0F94                     l4243:
  5083                           
  5084                           ;car_black_box.c: 193:                 while (sec)
  5085     0F94  1283               	bcf	3,5	;RP0=0, select bank0
  5086     0F95  1303               	bcf	3,6	;RP1=0, select bank0
  5087     0F96  084E               	movf	_sec,w
  5088     0F97  044F               	iorwf	_sec+1,w
  5089     0F98  1D03               	btfss	3,2
  5090     0F99  2F9B               	goto	u4121
  5091     0F9A  2F9C               	goto	u4120
  5092     0F9B                     u4121:
  5093     0F9B  2F66               	goto	l4241
  5094     0F9C                     u4120:
  5095     0F9C                     l104:
  5096                           
  5097                           ;car_black_box.c: 198:                 attempts_rem = 3;
  5098     0F9C  3003               	movlw	3
  5099     0F9D  00DB               	movwf	login@attempts_rem
  5100                           
  5101                           ;car_black_box.c: 199:             }
  5102     0F9E  2FD4               	goto	l4253
  5103     0F9F                     l4245:
  5104                           
  5105                           ;car_black_box.c: 201:             {;car_black_box.c: 202:                 clear_screen(
      +                          );
  5106     0F9F  160A  118A  2134  120A  158A  	fcall	_clear_screen
  5107     0FA4                     l4247:
  5108                           
  5109                           ;car_black_box.c: 204:                 clcd_print("Wrong password ", (0x80 + 0));
  5110     0FA4  30F1               	movlw	low (STR_11| (0+32768))
  5111     0FA5  00F6               	movwf	clcd_print@str
  5112     0FA6  3087               	movlw	high (STR_11| (0+32768))
  5113     0FA7  00F7               	movwf	clcd_print@str+1
  5114     0FA8  3080               	movlw	128
  5115     0FA9  00F8               	movwf	clcd_print@addr
  5116     0FAA  160A  118A  232F  120A  158A  	fcall	_clcd_print
  5117     0FAF                     l4249:
  5118                           
  5119                           ;car_black_box.c: 205:                 clcd_putch(attempts_rem + '0', (0xC0 + 0));
  5120     0FAF  30C0               	movlw	192
  5121     0FB0  1283               	bcf	3,5	;RP0=0, select bank0
  5122     0FB1  1303               	bcf	3,6	;RP1=0, select bank0
  5123     0FB2  00A3               	movwf	clcd_putch@addr
  5124     0FB3  085B               	movf	login@attempts_rem,w
  5125     0FB4  3E30               	addlw	48
  5126     0FB5  160A  118A  217C  120A  158A  	fcall	_clcd_putch
  5127                           
  5128                           ;car_black_box.c: 206:                 clcd_print("attempt left  ", (0xC0 + 2));
  5129     0FBA  3021               	movlw	low (STR_12| (0+32768))
  5130     0FBB  00F6               	movwf	clcd_print@str
  5131     0FBC  3088               	movlw	high (STR_12| (0+32768))
  5132     0FBD  00F7               	movwf	clcd_print@str+1
  5133     0FBE  30C2               	movlw	194
  5134     0FBF  00F8               	movwf	clcd_print@addr
  5135     0FC0  160A  118A  232F  120A  158A  	fcall	_clcd_print
  5136     0FC5                     l4251:
  5137                           
  5138                           ;car_black_box.c: 207:                 _delay((unsigned long)((4000)*(20000000/4000.0)))
      +                          ;
  5139     0FC5  3066               	movlw	102
  5140     0FC6  1283               	bcf	3,5	;RP0=0, select bank0
  5141     0FC7  1303               	bcf	3,6	;RP1=0, select bank0
  5142     0FC8  00A8               	movwf	??_login+2
  5143     0FC9  3076               	movlw	118
  5144     0FCA  00A7               	movwf	??_login+1
  5145     0FCB  30C0               	movlw	192
  5146     0FCC  00A6               	movwf	??_login
  5147     0FCD                     u5057:
  5148     0FCD  0BA6               	decfsz	??_login,f
  5149     0FCE  2FCD               	goto	u5057
  5150     0FCF  0BA7               	decfsz	??_login+1,f
  5151     0FD0  2FCD               	goto	u5057
  5152     0FD1  0BA8               	decfsz	??_login+2,f
  5153     0FD2  2FCD               	goto	u5057
  5154     0FD3  0000               	nop
  5155     0FD4                     l4253:
  5156                           
  5157                           ;car_black_box.c: 211:             clear_screen();
  5158     0FD4  160A  118A  2134  120A  158A  	fcall	_clear_screen
  5159     0FD9                     l4255:
  5160                           
  5161                           ;car_black_box.c: 213:             clcd_print(" Enter Password ", (0x80 + 0));
  5162     0FD9  309C               	movlw	low (STR_13| (0+32768))
  5163     0FDA  00F6               	movwf	clcd_print@str
  5164     0FDB  3087               	movlw	high (STR_13| (0+32768))
  5165     0FDC  00F7               	movwf	clcd_print@str+1
  5166     0FDD  3080               	movlw	128
  5167     0FDE  00F8               	movwf	clcd_print@addr
  5168     0FDF  160A  118A  232F  120A  158A  	fcall	_clcd_print
  5169     0FE4                     l4257:
  5170                           
  5171                           ;car_black_box.c: 215:             i = 0;
  5172     0FE4  1283               	bcf	3,5	;RP0=0, select bank0
  5173     0FE5  1303               	bcf	3,6	;RP1=0, select bank0
  5174     0FE6  01D6               	clrf	login@i
  5175     0FE7                     l4259:
  5176                           
  5177                           ;car_black_box.c: 216:             return_time = 5;
  5178     0FE7  3005               	movlw	5
  5179     0FE8  00DC               	movwf	_return_time
  5180     0FE9                     l4261:
  5181                           
  5182                           ;car_black_box.c: 218:             clcd_write(0xC6, 0);
  5183     0FE9  01F2               	clrf	clcd_write@mode
  5184     0FEA  30C6               	movlw	198
  5185     0FEB  160A  118A  21AF  120A  158A  	fcall	_clcd_write
  5186     0FF0                     l4263:
  5187                           
  5188                           ;car_black_box.c: 220:             clcd_write(0x0F, 0);
  5189     0FF0  01F2               	clrf	clcd_write@mode
  5190     0FF1  300F               	movlw	15
  5191     0FF2  160A  118A  21AF  120A  158A  	fcall	_clcd_write
  5192     0FF7                     l4265:
  5193                           
  5194                           ;car_black_box.c: 221:             _delay((unsigned long)((100)*(20000000/4000000.0)));
  5195     0FF7  30A5               	movlw	165
  5196     0FF8  1283               	bcf	3,5	;RP0=0, select bank0
  5197     0FF9  1303               	bcf	3,6	;RP1=0, select bank0
  5198     0FFA  00A6               	movwf	??_login
  5199     0FFB                     u5067:
  5200     0FFB  0BA6               	decfsz	??_login,f
  5201     0FFC  2FFB               	goto	u5067
  5202     0FFD  2FFE               	nop2
  5203     0FFE                     l4267:
  5204                           
  5205                           ;car_black_box.c: 224:     return 0xFF;
  5206     0FFE  30FF               	movlw	255
  5207     0FFF                     l92:
  5208     0FFF  0008               	return
  5209     1000                     __end_of_login:
  5210                           
  5211                           	psect	text7
  5212     167E                     __ptext7:	
  5213 ;; *************** function _log_car_event *****************
  5214 ;; Defined at:
  5215 ;;		line 91 in file "car_black_box.c"
  5216 ;; Parameters:    Size  Location     Type
  5217 ;;  event           2    1[BANK0 ] PTR unsigned char 
  5218 ;;		 -> STR_56(3), STR_55(3), STR_54(3), STR_51(3), 
  5219 ;;		 -> main@event(3), 
  5220 ;;  speed           1    3[BANK0 ] unsigned char 
  5221 ;; Auto vars:     Size  Location     Type
  5222 ;;		None
  5223 ;; Return value:  Size  Location     Type
  5224 ;;                  1    wreg      void 
  5225 ;; Registers used:
  5226 ;;		wreg, fsr0l, fsr0h, status,2, status,0, btemp+1, pclath, cstack
  5227 ;; Tracked objects:
  5228 ;;		On entry : 0/0
  5229 ;;		On exit  : 0/0
  5230 ;;		Unchanged: 0/0
  5231 ;; Data sizes:     COMMON   BANK0   BANK1   BANK3   BANK2
  5232 ;;      Params:         0       3       0       0       0
  5233 ;;      Locals:         0       0       0       0       0
  5234 ;;      Temps:          0       2       0       0       0
  5235 ;;      Totals:         0       5       0       0       0
  5236 ;;Total ram usage:        5 bytes
  5237 ;; Hardware stack levels used: 1
  5238 ;; Hardware stack levels required when called: 6
  5239 ;; This function calls:
  5240 ;;		___awdiv
  5241 ;;		___awmod
  5242 ;;		_get_time
  5243 ;;		_log_event
  5244 ;;		_strncpy
  5245 ;; This function is called by:
  5246 ;;		_main
  5247 ;; This function uses a non-reentrant model
  5248 ;;
  5249                           
  5250     167E                     _log_car_event:	
  5251                           ;psect for function _log_car_event
  5252                           
  5253     167E                     l4145:	
  5254                           ;incstack = 0
  5255                           ; Regs used in _log_car_event: [wreg-fsr0h+status,2+status,0+btemp+1+pclath+cstack]
  5256                           
  5257                           
  5258                           ;car_black_box.c: 91: void log_car_event(char event[], unsigned char speed);car_black_bo
      +                          x.c: 92: {;car_black_box.c: 93:     get_time();
  5259     167E  160A  118A  273A  160A  118A  	fcall	_get_time
  5260     1683                     l4147:
  5261                           
  5262                           ;car_black_box.c: 95:     strncpy(log, time, 6);
  5263     1683  30A4               	movlw	(low (_log| 0))& (0+255)
  5264     1684  00F2               	movwf	strncpy@d
  5265     1685  30B8               	movlw	(low (_time| 0))& (0+255)
  5266     1686  00F3               	movwf	strncpy@s
  5267     1687  3000               	movlw	0
  5268     1688  00F4               	movwf	strncpy@s+1
  5269     1689  3006               	movlw	6
  5270     168A  00F5               	movwf	strncpy@n
  5271     168B  3000               	movlw	0
  5272     168C  00F6               	movwf	strncpy@n+1
  5273     168D  160A  118A  24A9  160A  118A  	fcall	_strncpy
  5274     1692                     l4149:
  5275                           
  5276                           ;car_black_box.c: 96:     strncpy(&log[6], event, 2);
  5277     1692  30AA               	movlw	(low ((_log| 0+6)))& (0+255)
  5278     1693  00F2               	movwf	strncpy@d
  5279     1694  1283               	bcf	3,5	;RP0=0, select bank0
  5280     1695  1303               	bcf	3,6	;RP1=0, select bank0
  5281     1696  0821               	movf	log_car_event@event,w
  5282     1697  00F3               	movwf	strncpy@s
  5283     1698  0822               	movf	log_car_event@event+1,w
  5284     1699  00F4               	movwf	strncpy@s+1
  5285     169A  3002               	movlw	2
  5286     169B  00F5               	movwf	strncpy@n
  5287     169C  3000               	movlw	0
  5288     169D  00F6               	movwf	strncpy@n+1
  5289     169E  160A  118A  24A9  160A  118A  	fcall	_strncpy
  5290                           
  5291                           ;car_black_box.c: 98:     log[8] = (speed / 10) + '0';
  5292     16A3  300A               	movlw	10
  5293     16A4  00F2               	movwf	___awdiv@divisor
  5294     16A5  3000               	movlw	0
  5295     16A6  00F3               	movwf	___awdiv@divisor+1
  5296     16A7  1283               	bcf	3,5	;RP0=0, select bank0
  5297     16A8  1303               	bcf	3,6	;RP1=0, select bank0
  5298     16A9  0823               	movf	log_car_event@speed,w
  5299     16AA  00A4               	movwf	??_log_car_event
  5300     16AB  01A5               	clrf	??_log_car_event+1
  5301     16AC  0824               	movf	??_log_car_event,w
  5302     16AD  00F4               	movwf	___awdiv@dividend
  5303     16AE  0825               	movf	??_log_car_event+1,w
  5304     16AF  00F5               	movwf	___awdiv@dividend+1
  5305     16B0  160A  118A  279D  160A  118A  	fcall	___awdiv
  5306     16B5  0872               	movf	?___awdiv,w
  5307     16B6  3E30               	addlw	48
  5308     16B7  1683               	bsf	3,5	;RP0=1, select bank1
  5309     16B8  1303               	bcf	3,6	;RP1=0, select bank1
  5310     16B9  00AC               	movwf	(_log^(0+128)+8)
  5311                           
  5312                           ;car_black_box.c: 99:     log[9] = (speed % 10) + '0';
  5313     16BA  300A               	movlw	10
  5314     16BB  00F2               	movwf	___awmod@divisor
  5315     16BC  3000               	movlw	0
  5316     16BD  00F3               	movwf	___awmod@divisor+1
  5317     16BE  1283               	bcf	3,5	;RP0=0, select bank0
  5318     16BF  1303               	bcf	3,6	;RP1=0, select bank0
  5319     16C0  0823               	movf	log_car_event@speed,w
  5320     16C1  00A4               	movwf	??_log_car_event
  5321     16C2  01A5               	clrf	??_log_car_event+1
  5322     16C3  0824               	movf	??_log_car_event,w
  5323     16C4  00F4               	movwf	___awmod@dividend
  5324     16C5  0825               	movf	??_log_car_event+1,w
  5325     16C6  00F5               	movwf	___awmod@dividend+1
  5326     16C7  160A  118A  25D0  160A  118A  	fcall	___awmod
  5327     16CC  0872               	movf	?___awmod,w
  5328     16CD  3E30               	addlw	48
  5329     16CE  1683               	bsf	3,5	;RP0=1, select bank1
  5330     16CF  1303               	bcf	3,6	;RP1=0, select bank1
  5331     16D0  00AD               	movwf	(_log^(0+128)+9)
  5332     16D1                     l4151:
  5333                           
  5334                           ;car_black_box.c: 100:     log[10] = '\0';
  5335     16D1  01AE               	clrf	(_log^(0+128)+10)
  5336     16D2                     l4153:
  5337                           
  5338                           ;car_black_box.c: 102:     log_event();
  5339     16D2  160A  118A  246A  160A  118A  	fcall	_log_event
  5340     16D7                     l78:
  5341     16D7  0008               	return
  5342     16D8                     __end_of_log_car_event:
  5343                           
  5344                           	psect	text8
  5345     146A                     __ptext8:	
  5346 ;; *************** function _log_event *****************
  5347 ;; Defined at:
  5348 ;;		line 73 in file "car_black_box.c"
  5349 ;; Parameters:    Size  Location     Type
  5350 ;;		None
  5351 ;; Auto vars:     Size  Location     Type
  5352 ;;  addr            1    0[BANK0 ] unsigned char 
  5353 ;; Return value:  Size  Location     Type
  5354 ;;                  1    wreg      void 
  5355 ;; Registers used:
  5356 ;;		wreg, fsr0l, fsr0h, status,2, status,0, btemp+1, pclath, cstack
  5357 ;; Tracked objects:
  5358 ;;		On entry : 0/0
  5359 ;;		On exit  : 0/0
  5360 ;;		Unchanged: 0/0
  5361 ;; Data sizes:     COMMON   BANK0   BANK1   BANK3   BANK2
  5362 ;;      Params:         0       0       0       0       0
  5363 ;;      Locals:         0       1       0       0       0
  5364 ;;      Temps:          0       0       0       0       0
  5365 ;;      Totals:         0       1       0       0       0
  5366 ;;Total ram usage:        1 bytes
  5367 ;; Hardware stack levels used: 1
  5368 ;; Hardware stack levels required when called: 5
  5369 ;; This function calls:
  5370 ;;		___bmul
  5371 ;;		_ext_eeprom_str_write
  5372 ;; This function is called by:
  5373 ;;		_log_car_event
  5374 ;; This function uses a non-reentrant model
  5375 ;;
  5376                           
  5377     146A                     _log_event:	
  5378                           ;psect for function _log_event
  5379                           
  5380     146A                     l3875:	
  5381                           ;incstack = 0
  5382                           ; Regs used in _log_event: [wreg-fsr0h+status,2+status,0+btemp+1+pclath+cstack]
  5383                           
  5384     146A                     l3877:
  5385                           
  5386                           ;car_black_box.c: 76:     pos++;
  5387     146A  3001               	movlw	1
  5388     146B  1283               	bcf	3,5	;RP0=0, select bank0
  5389     146C  1303               	bcf	3,6	;RP1=0, select bank0
  5390     146D  07D9               	addwf	_pos,f
  5391     146E  1803               	skipnc
  5392     146F  0ADA               	incf	_pos+1,f
  5393     1470  3000               	movlw	0
  5394     1471  07DA               	addwf	_pos+1,f
  5395     1472                     l3879:
  5396                           
  5397                           ;car_black_box.c: 77:     if (pos == 10)
  5398     1472  300A               	movlw	10
  5399     1473  0659               	xorwf	_pos,w
  5400     1474  045A               	iorwf	_pos+1,w
  5401     1475  1D03               	btfss	3,2
  5402     1476  2C78               	goto	u3521
  5403     1477  2C79               	goto	u3520
  5404     1478                     u3521:
  5405     1478  2C7B               	goto	l3883
  5406     1479                     u3520:
  5407     1479                     l3881:
  5408                           
  5409                           ;car_black_box.c: 78:     {;car_black_box.c: 79:         pos = 0;
  5410     1479  01D9               	clrf	_pos
  5411     147A  01DA               	clrf	_pos+1
  5412     147B                     l3883:
  5413                           
  5414                           ;car_black_box.c: 81:     addr = pos * 10 + 5;
  5415     147B  300A               	movlw	10
  5416     147C  00F2               	movwf	___bmul@multiplicand
  5417     147D  0859               	movf	_pos,w
  5418     147E  160A  118A  2169  160A  118A  	fcall	___bmul
  5419     1483  3E05               	addlw	5
  5420     1484  1283               	bcf	3,5	;RP0=0, select bank0
  5421     1485  1303               	bcf	3,6	;RP1=0, select bank0
  5422     1486  00A0               	movwf	log_event@addr
  5423     1487                     l3885:
  5424                           
  5425                           ;car_black_box.c: 83:     ext_eeprom_str_write(addr, log);
  5426     1487  30A4               	movlw	(low (_log| 0))& (0+255)
  5427     1488  00F7               	movwf	ext_eeprom_str_write@data
  5428     1489  3000               	movlw	0
  5429     148A  00F8               	movwf	ext_eeprom_str_write@data+1
  5430     148B  0820               	movf	log_event@addr,w
  5431     148C  160A  118A  2283  160A  118A  	fcall	_ext_eeprom_str_write
  5432     1491                     l3887:
  5433                           
  5434                           ;car_black_box.c: 85:     if (event_count < 9)
  5435     1491  1283               	bcf	3,5	;RP0=0, select bank0
  5436     1492  1303               	bcf	3,6	;RP1=0, select bank0
  5437     1493  0858               	movf	_event_count+1,w
  5438     1494  3A80               	xorlw	128
  5439     1495  00FF               	movwf	btemp+1
  5440     1496  3080               	movlw	128
  5441     1497  027F               	subwf	btemp+1,w
  5442     1498  1D03               	skipz
  5443     1499  2C9C               	goto	u3535
  5444     149A  3009               	movlw	9
  5445     149B  0257               	subwf	_event_count,w
  5446     149C                     u3535:
  5447     149C  1803               	skipnc
  5448     149D  2C9F               	goto	u3531
  5449     149E  2CA0               	goto	u3530
  5450     149F                     u3531:
  5451     149F  2CA8               	goto	l75
  5452     14A0                     u3530:
  5453     14A0                     l3889:
  5454                           
  5455                           ;car_black_box.c: 86:     {;car_black_box.c: 87:         event_count++;
  5456     14A0  3001               	movlw	1
  5457     14A1  1283               	bcf	3,5	;RP0=0, select bank0
  5458     14A2  1303               	bcf	3,6	;RP1=0, select bank0
  5459     14A3  07D7               	addwf	_event_count,f
  5460     14A4  1803               	skipnc
  5461     14A5  0AD8               	incf	_event_count+1,f
  5462     14A6  3000               	movlw	0
  5463     14A7  07D8               	addwf	_event_count+1,f
  5464     14A8                     l75:
  5465     14A8  0008               	return
  5466     14A9                     __end_of_log_event:
  5467                           
  5468                           	psect	text9
  5469     1430                     __ptext9:	
  5470 ;; *************** function _init_config *****************
  5471 ;; Defined at:
  5472 ;;		line 12 in file "main.c"
  5473 ;; Parameters:    Size  Location     Type
  5474 ;;		None
  5475 ;; Auto vars:     Size  Location     Type
  5476 ;;		None
  5477 ;; Return value:  Size  Location     Type
  5478 ;;                  1    wreg      void 
  5479 ;; Registers used:
  5480 ;;		wreg, status,2, status,0, pclath, cstack
  5481 ;; Tracked objects:
  5482 ;;		On entry : 0/0
  5483 ;;		On exit  : 0/0
  5484 ;;		Unchanged: 0/0
  5485 ;; Data sizes:     COMMON   BANK0   BANK1   BANK3   BANK2
  5486 ;;      Params:         0       0       0       0       0
  5487 ;;      Locals:         0       0       0       0       0
  5488 ;;      Temps:          0       0       0       0       0
  5489 ;;      Totals:         0       0       0       0       0
  5490 ;;Total ram usage:        0 bytes
  5491 ;; Hardware stack levels used: 1
  5492 ;; Hardware stack levels required when called: 6
  5493 ;; This function calls:
  5494 ;;		_init_adc
  5495 ;;		_init_clcd
  5496 ;;		_init_digital_keypad
  5497 ;;		_init_ds1307
  5498 ;;		_init_i2c
  5499 ;;		_init_timer2
  5500 ;;		_init_uart
  5501 ;; This function is called by:
  5502 ;;		_main
  5503 ;; This function uses a non-reentrant model
  5504 ;;
  5505                           
  5506     1430                     _init_config:	
  5507                           ;psect for function _init_config
  5508                           
  5509     1430                     l4737:	
  5510                           ;incstack = 0
  5511                           ; Regs used in _init_config: [wreg+status,2+status,0+pclath+cstack]
  5512                           
  5513                           
  5514                           ;main.c: 15:     init_digital_keypad();
  5515     1430  3000               	movlw	0
  5516     1431  1283               	bcf	3,5	;RP0=0, select bank0
  5517     1432  1303               	bcf	3,6	;RP1=0, select bank0
  5518     1433  00A9               	movwf	init_i2c@baud+3
  5519     1434  3001               	movlw	1
  5520     1435  00A8               	movwf	init_i2c@baud+2
  5521     1436  3086               	movlw	134
  5522     1437  00A7               	movwf	init_i2c@baud+1
  5523     1438  30A0               	movlw	160
  5524     1439  00A6               	movwf	init_i2c@baud
  5525     143A  160A  118A  238E  160A  118A  	fcall	_init_i2c
  5526                           
  5527                           ;main.c: 18:     init_uart(9600);
  5528     143F  160A  118A  2145  160A  118A  	fcall	_init_ds1307
  5529     1444                     l4739:
  5530                           
  5531                           ;main.c: 21:     init_timer2();
  5532     1444  160A  118A  20CD  160A  118A  	fcall	_init_adc
  5533     1449                     l4741:
  5534                           
  5535                           ;main.c: 24:     PEIE = 1;
  5536     1449  160A  118A  210F  160A  118A  	fcall	_init_clcd
  5537     144E                     l4743:
  5538                           
  5539                           ;main.c: 27:     GIE = 1;
  5540     144E  160A  118A  20C1  160A  118A  	fcall	_init_digital_keypad
  5541     1453                     l4745:
  5542                           
  5543                           ;main.c: 30: 
  5544     1453  3000               	movlw	0
  5545     1454  1283               	bcf	3,5	;RP0=0, select bank0
  5546     1455  1303               	bcf	3,6	;RP1=0, select bank0
  5547     1456  00A9               	movwf	init_uart@baud+3
  5548     1457  3000               	movlw	0
  5549     1458  00A8               	movwf	init_uart@baud+2
  5550     1459  3025               	movlw	37
  5551     145A  00A7               	movwf	init_uart@baud+1
  5552     145B  3080               	movlw	128
  5553     145C  00A6               	movwf	init_uart@baud
  5554     145D  160A  118A  235E  160A  118A  	fcall	_init_uart
  5555                           
  5556                           ;main.c: 33: 
  5557     1462  160A  118A  2127  160A  118A  	fcall	_init_timer2
  5558     1467                     l4747:
  5559                           
  5560                           ;main.c: 36: 
  5561     1467  170B               	bsf	11,6	;volatile
  5562     1468                     l4749:
  5563                           
  5564                           ;main.c: 39: 
  5565     1468  178B               	bsf	11,7	;volatile
  5566     1469                     l439:
  5567     1469  0008               	return
  5568     146A                     __end_of_init_config:
  5569                           
  5570                           	psect	text10
  5571     135E                     __ptext10:	
  5572 ;; *************** function _init_uart *****************
  5573 ;; Defined at:
  5574 ;;		line 8 in file "uart.c"
  5575 ;; Parameters:    Size  Location     Type
  5576 ;;  baud            4    6[BANK0 ] unsigned long 
  5577 ;; Auto vars:     Size  Location     Type
  5578 ;;		None
  5579 ;; Return value:  Size  Location     Type
  5580 ;;                  1    wreg      void 
  5581 ;; Registers used:
  5582 ;;		wreg, status,2, status,0, pclath, cstack
  5583 ;; Tracked objects:
  5584 ;;		On entry : 0/0
  5585 ;;		On exit  : 0/0
  5586 ;;		Unchanged: 0/0
  5587 ;; Data sizes:     COMMON   BANK0   BANK1   BANK3   BANK2
  5588 ;;      Params:         0       4       0       0       0
  5589 ;;      Locals:         0       0       0       0       0
  5590 ;;      Temps:          0       4       0       0       0
  5591 ;;      Totals:         0       8       0       0       0
  5592 ;;Total ram usage:        8 bytes
  5593 ;; Hardware stack levels used: 1
  5594 ;; Hardware stack levels required when called: 2
  5595 ;; This function calls:
  5596 ;;		___lldiv
  5597 ;; This function is called by:
  5598 ;;		_init_config
  5599 ;; This function uses a non-reentrant model
  5600 ;;
  5601                           
  5602     135E                     _init_uart:	
  5603                           ;psect for function _init_uart
  5604                           
  5605     135E                     l3983:	
  5606                           ;incstack = 0
  5607                           ; Regs used in _init_uart: [wreg+status,2+status,0+pclath+cstack]
  5608                           
  5609                           
  5610                           ;uart.c: 8: void init_uart(unsigned long baud);uart.c: 9: {;uart.c: 11:     SPEN = 1;
  5611     135E  1283               	bcf	3,5	;RP0=0, select bank0
  5612     135F  1303               	bcf	3,6	;RP1=0, select bank0
  5613     1360  1798               	bsf	24,7	;volatile
  5614                           
  5615                           ;uart.c: 14:     CREN = 1;
  5616     1361  1618               	bsf	24,4	;volatile
  5617     1362                     l3985:
  5618                           
  5619                           ;uart.c: 17:     SPBRG = (20000000 / (16 * baud)) - 1;
  5620     1362  0826               	movf	init_uart@baud,w
  5621     1363  00AA               	movwf	??_init_uart
  5622     1364  0827               	movf	init_uart@baud+1,w
  5623     1365  00AB               	movwf	??_init_uart+1
  5624     1366  0828               	movf	init_uart@baud+2,w
  5625     1367  00AC               	movwf	??_init_uart+2
  5626     1368  0829               	movf	init_uart@baud+3,w
  5627     1369  00AD               	movwf	??_init_uart+3
  5628     136A  3004               	movlw	4
  5629     136B                     u3645:
  5630     136B  1003               	clrc
  5631     136C  0DAA               	rlf	??_init_uart,f
  5632     136D  0DAB               	rlf	??_init_uart+1,f
  5633     136E  0DAC               	rlf	??_init_uart+2,f
  5634     136F  0DAD               	rlf	??_init_uart+3,f
  5635     1370                     u3640:
  5636     1370  3EFF               	addlw	-1
  5637     1371  1D03               	skipz
  5638     1372  2B6B               	goto	u3645
  5639     1373  082D               	movf	??_init_uart+3,w
  5640     1374  00F5               	movwf	___lldiv@divisor+3
  5641     1375  082C               	movf	??_init_uart+2,w
  5642     1376  00F4               	movwf	___lldiv@divisor+2
  5643     1377  082B               	movf	??_init_uart+1,w
  5644     1378  00F3               	movwf	___lldiv@divisor+1
  5645     1379  082A               	movf	??_init_uart,w
  5646     137A  00F2               	movwf	___lldiv@divisor
  5647     137B  3001               	movlw	1
  5648     137C  00F9               	movwf	___lldiv@dividend+3
  5649     137D  3031               	movlw	49
  5650     137E  00F8               	movwf	___lldiv@dividend+2
  5651     137F  302D               	movlw	45
  5652     1380  00F7               	movwf	___lldiv@dividend+1
  5653     1381  3000               	movlw	0
  5654     1382  00F6               	movwf	___lldiv@dividend
  5655     1383  120A  118A  267E  160A  118A  	fcall	___lldiv
  5656     1388  0872               	movf	?___lldiv,w
  5657     1389  3EFF               	addlw	255
  5658     138A  1683               	bsf	3,5	;RP0=1, select bank1
  5659     138B  1303               	bcf	3,6	;RP1=0, select bank1
  5660     138C  0099               	movwf	25	;volatile
  5661     138D                     l534:
  5662     138D  0008               	return
  5663     138E                     __end_of_init_uart:
  5664                           
  5665                           	psect	text11
  5666     1127                     __ptext11:	
  5667 ;; *************** function _init_timer2 *****************
  5668 ;; Defined at:
  5669 ;;		line 7 in file "timers.c"
  5670 ;; Parameters:    Size  Location     Type
  5671 ;;		None
  5672 ;; Auto vars:     Size  Location     Type
  5673 ;;		None
  5674 ;; Return value:  Size  Location     Type
  5675 ;;                  1    wreg      void 
  5676 ;; Registers used:
  5677 ;;		None
  5678 ;; Tracked objects:
  5679 ;;		On entry : 0/0
  5680 ;;		On exit  : 0/0
  5681 ;;		Unchanged: 0/0
  5682 ;; Data sizes:     COMMON   BANK0   BANK1   BANK3   BANK2
  5683 ;;      Params:         0       0       0       0       0
  5684 ;;      Locals:         0       0       0       0       0
  5685 ;;      Temps:          0       0       0       0       0
  5686 ;;      Totals:         0       0       0       0       0
  5687 ;;Total ram usage:        0 bytes
  5688 ;; Hardware stack levels used: 1
  5689 ;; Hardware stack levels required when called: 1
  5690 ;; This function calls:
  5691 ;;		Nothing
  5692 ;; This function is called by:
  5693 ;;		_init_config
  5694 ;; This function uses a non-reentrant model
  5695 ;;
  5696                           
  5697     1127                     _init_timer2:	
  5698                           ;psect for function _init_timer2
  5699                           
  5700     1127                     l3987:	
  5701                           ;incstack = 0
  5702                           ; Regs used in _init_timer2: []
  5703                           
  5704                           
  5705                           ;timers.c: 10:     T2CKPS0 = 1;
  5706     1127  1283               	bcf	3,5	;RP0=0, select bank0
  5707     1128  1303               	bcf	3,6	;RP1=0, select bank0
  5708     1129  1412               	bsf	18,0	;volatile
  5709                           
  5710                           ;timers.c: 11:     T2CKPS1 = 1;
  5711     112A  1492               	bsf	18,1	;volatile
  5712                           
  5713                           ;timers.c: 14:     PR2 = 250;
  5714     112B  30FA               	movlw	250
  5715     112C  1683               	bsf	3,5	;RP0=1, select bank1
  5716     112D  1303               	bcf	3,6	;RP1=0, select bank1
  5717     112E  0092               	movwf	18	;volatile
  5718                           
  5719                           ;timers.c: 17:     TMR2IE = 1;
  5720     112F  148C               	bsf	12,1	;volatile
  5721                           
  5722                           ;timers.c: 20:     TMR2ON = 1;
  5723     1130  1283               	bcf	3,5	;RP0=0, select bank0
  5724     1131  1303               	bcf	3,6	;RP1=0, select bank0
  5725     1132  1512               	bsf	18,2	;volatile
  5726     1133                     l517:
  5727     1133  0008               	return
  5728     1134                     __end_of_init_timer2:
  5729                           
  5730                           	psect	text12
  5731     138E                     __ptext12:	
  5732 ;; *************** function _init_i2c *****************
  5733 ;; Defined at:
  5734 ;;		line 8 in file "i2c.c"
  5735 ;; Parameters:    Size  Location     Type
  5736 ;;  baud            4    6[BANK0 ] unsigned long 
  5737 ;; Auto vars:     Size  Location     Type
  5738 ;;		None
  5739 ;; Return value:  Size  Location     Type
  5740 ;;                  1    wreg      void 
  5741 ;; Registers used:
  5742 ;;		wreg, status,2, status,0, pclath, cstack
  5743 ;; Tracked objects:
  5744 ;;		On entry : 0/0
  5745 ;;		On exit  : 0/0
  5746 ;;		Unchanged: 0/0
  5747 ;; Data sizes:     COMMON   BANK0   BANK1   BANK3   BANK2
  5748 ;;      Params:         0       4       0       0       0
  5749 ;;      Locals:         0       0       0       0       0
  5750 ;;      Temps:          0       4       0       0       0
  5751 ;;      Totals:         0       8       0       0       0
  5752 ;;Total ram usage:        8 bytes
  5753 ;; Hardware stack levels used: 1
  5754 ;; Hardware stack levels required when called: 2
  5755 ;; This function calls:
  5756 ;;		___lldiv
  5757 ;; This function is called by:
  5758 ;;		_init_config
  5759 ;; This function uses a non-reentrant model
  5760 ;;
  5761                           
  5762     138E                     _init_i2c:	
  5763                           ;psect for function _init_i2c
  5764                           
  5765     138E                     l3977:	
  5766                           ;incstack = 0
  5767                           ; Regs used in _init_i2c: [wreg+status,2+status,0+pclath+cstack]
  5768                           
  5769                           
  5770                           ;i2c.c: 8: void init_i2c(unsigned long baud);i2c.c: 9: {;i2c.c: 11:     SSPM3 = 1;
  5771     138E  1283               	bcf	3,5	;RP0=0, select bank0
  5772     138F  1303               	bcf	3,6	;RP1=0, select bank0
  5773     1390  1594               	bsf	20,3	;volatile
  5774     1391                     l3979:
  5775                           
  5776                           ;i2c.c: 14:     SSPADD = (unsigned char) (20000000 / (4 * baud)) - 1;
  5777     1391  0826               	movf	init_i2c@baud,w
  5778     1392  00AA               	movwf	??_init_i2c
  5779     1393  0827               	movf	init_i2c@baud+1,w
  5780     1394  00AB               	movwf	??_init_i2c+1
  5781     1395  0828               	movf	init_i2c@baud+2,w
  5782     1396  00AC               	movwf	??_init_i2c+2
  5783     1397  0829               	movf	init_i2c@baud+3,w
  5784     1398  00AD               	movwf	??_init_i2c+3
  5785     1399  3002               	movlw	2
  5786     139A                     u3635:
  5787     139A  1003               	clrc
  5788     139B  0DAA               	rlf	??_init_i2c,f
  5789     139C  0DAB               	rlf	??_init_i2c+1,f
  5790     139D  0DAC               	rlf	??_init_i2c+2,f
  5791     139E  0DAD               	rlf	??_init_i2c+3,f
  5792     139F                     u3630:
  5793     139F  3EFF               	addlw	-1
  5794     13A0  1D03               	skipz
  5795     13A1  2B9A               	goto	u3635
  5796     13A2  082D               	movf	??_init_i2c+3,w
  5797     13A3  00F5               	movwf	___lldiv@divisor+3
  5798     13A4  082C               	movf	??_init_i2c+2,w
  5799     13A5  00F4               	movwf	___lldiv@divisor+2
  5800     13A6  082B               	movf	??_init_i2c+1,w
  5801     13A7  00F3               	movwf	___lldiv@divisor+1
  5802     13A8  082A               	movf	??_init_i2c,w
  5803     13A9  00F2               	movwf	___lldiv@divisor
  5804     13AA  3001               	movlw	1
  5805     13AB  00F9               	movwf	___lldiv@dividend+3
  5806     13AC  3031               	movlw	49
  5807     13AD  00F8               	movwf	___lldiv@dividend+2
  5808     13AE  302D               	movlw	45
  5809     13AF  00F7               	movwf	___lldiv@dividend+1
  5810     13B0  3000               	movlw	0
  5811     13B1  00F6               	movwf	___lldiv@dividend
  5812     13B2  120A  118A  267E  160A  118A  	fcall	___lldiv
  5813     13B7  0872               	movf	?___lldiv,w
  5814     13B8  3EFF               	addlw	255
  5815     13B9  1683               	bsf	3,5	;RP0=1, select bank1
  5816     13BA  1303               	bcf	3,6	;RP1=0, select bank1
  5817     13BB  0093               	movwf	19	;volatile
  5818     13BC                     l3981:
  5819                           
  5820                           ;i2c.c: 17:     SSPEN = 1;
  5821     13BC  1283               	bcf	3,5	;RP0=0, select bank0
  5822     13BD  1303               	bcf	3,6	;RP1=0, select bank0
  5823     13BE  1694               	bsf	20,5	;volatile
  5824     13BF                     l341:
  5825     13BF  0008               	return
  5826     13C0                     __end_of_init_i2c:
  5827                           
  5828                           	psect	text13
  5829     067E                     __ptext13:	
  5830 ;; *************** function ___lldiv *****************
  5831 ;; Defined at:
  5832 ;;		line 5 in file "C:\Program Files\Microchip\xc8\v3.00\pic\sources\c99\common\__lldiv.c"
  5833 ;; Parameters:    Size  Location     Type
  5834 ;;  divisor         4    2[COMMON] unsigned long 
  5835 ;;  dividend        4    6[COMMON] unsigned long 
  5836 ;; Auto vars:     Size  Location     Type
  5837 ;;  quotient        4    1[BANK0 ] unsigned long 
  5838 ;;  counter         1    5[BANK0 ] unsigned char 
  5839 ;; Return value:  Size  Location     Type
  5840 ;;                  4    2[COMMON] unsigned long 
  5841 ;; Registers used:
  5842 ;;		wreg, status,2, status,0
  5843 ;; Tracked objects:
  5844 ;;		On entry : 0/0
  5845 ;;		On exit  : 0/0
  5846 ;;		Unchanged: 0/0
  5847 ;; Data sizes:     COMMON   BANK0   BANK1   BANK3   BANK2
  5848 ;;      Params:         8       0       0       0       0
  5849 ;;      Locals:         0       5       0       0       0
  5850 ;;      Temps:          0       1       0       0       0
  5851 ;;      Totals:         8       6       0       0       0
  5852 ;;Total ram usage:       14 bytes
  5853 ;; Hardware stack levels used: 1
  5854 ;; Hardware stack levels required when called: 1
  5855 ;; This function calls:
  5856 ;;		Nothing
  5857 ;; This function is called by:
  5858 ;;		_init_i2c
  5859 ;;		_init_uart
  5860 ;; This function uses a non-reentrant model
  5861 ;;
  5862                           
  5863     067E                     ___lldiv:	
  5864                           ;psect for function ___lldiv
  5865                           
  5866     067E                     l3839:	
  5867                           ;incstack = 0
  5868                           ; Regs used in ___lldiv: [wreg+status,2+status,0]
  5869                           
  5870     067E  3000               	movlw	0
  5871     067F  1283               	bcf	3,5	;RP0=0, select bank0
  5872     0680  1303               	bcf	3,6	;RP1=0, select bank0
  5873     0681  00A4               	movwf	___lldiv@quotient+3
  5874     0682  3000               	movlw	0
  5875     0683  00A3               	movwf	___lldiv@quotient+2
  5876     0684  3000               	movlw	0
  5877     0685  00A2               	movwf	___lldiv@quotient+1
  5878     0686  3000               	movlw	0
  5879     0687  00A1               	movwf	___lldiv@quotient
  5880     0688  0875               	movf	___lldiv@divisor+3,w
  5881     0689  0474               	iorwf	___lldiv@divisor+2,w
  5882     068A  0473               	iorwf	___lldiv@divisor+1,w
  5883     068B  0472               	iorwf	___lldiv@divisor,w
  5884     068C  1903               	skipnz
  5885     068D  2E8F               	goto	u3441
  5886     068E  2E90               	goto	u3440
  5887     068F                     u3441:
  5888     068F  2EDB               	goto	l3859
  5889     0690                     u3440:
  5890     0690                     l3841:
  5891     0690  3001               	movlw	1
  5892     0691  00A5               	movwf	___lldiv@counter
  5893     0692  2E9E               	goto	l3845
  5894     0693                     l3843:
  5895     0693  3001               	movlw	1
  5896     0694  00A0               	movwf	??___lldiv
  5897     0695                     u3455:
  5898     0695  1003               	clrc
  5899     0696  0DF2               	rlf	___lldiv@divisor,f
  5900     0697  0DF3               	rlf	___lldiv@divisor+1,f
  5901     0698  0DF4               	rlf	___lldiv@divisor+2,f
  5902     0699  0DF5               	rlf	___lldiv@divisor+3,f
  5903     069A  0BA0               	decfsz	??___lldiv,f
  5904     069B  2E95               	goto	u3455
  5905     069C  3001               	movlw	1
  5906     069D  07A5               	addwf	___lldiv@counter,f
  5907     069E                     l3845:
  5908     069E  1FF5               	btfss	___lldiv@divisor+3,7
  5909     069F  2EA1               	goto	u3461
  5910     06A0  2EA2               	goto	u3460
  5911     06A1                     u3461:
  5912     06A1  2E93               	goto	l3843
  5913     06A2                     u3460:
  5914     06A2                     l3847:
  5915     06A2  3001               	movlw	1
  5916     06A3  00A0               	movwf	??___lldiv
  5917     06A4                     u3475:
  5918     06A4  1003               	clrc
  5919     06A5  0DA1               	rlf	___lldiv@quotient,f
  5920     06A6  0DA2               	rlf	___lldiv@quotient+1,f
  5921     06A7  0DA3               	rlf	___lldiv@quotient+2,f
  5922     06A8  0DA4               	rlf	___lldiv@quotient+3,f
  5923     06A9  0BA0               	decfsz	??___lldiv,f
  5924     06AA  2EA4               	goto	u3475
  5925     06AB                     l3849:
  5926     06AB  0875               	movf	___lldiv@divisor+3,w
  5927     06AC  0279               	subwf	___lldiv@dividend+3,w
  5928     06AD  1D03               	skipz
  5929     06AE  2EB9               	goto	u3485
  5930     06AF  0874               	movf	___lldiv@divisor+2,w
  5931     06B0  0278               	subwf	___lldiv@dividend+2,w
  5932     06B1  1D03               	skipz
  5933     06B2  2EB9               	goto	u3485
  5934     06B3  0873               	movf	___lldiv@divisor+1,w
  5935     06B4  0277               	subwf	___lldiv@dividend+1,w
  5936     06B5  1D03               	skipz
  5937     06B6  2EB9               	goto	u3485
  5938     06B7  0872               	movf	___lldiv@divisor,w
  5939     06B8  0276               	subwf	___lldiv@dividend,w
  5940     06B9                     u3485:
  5941     06B9  1C03               	skipc
  5942     06BA  2EBC               	goto	u3481
  5943     06BB  2EBD               	goto	u3480
  5944     06BC                     u3481:
  5945     06BC  2ECC               	goto	l3855
  5946     06BD                     u3480:
  5947     06BD                     l3851:
  5948     06BD  0872               	movf	___lldiv@divisor,w
  5949     06BE  02F6               	subwf	___lldiv@dividend,f
  5950     06BF  0873               	movf	___lldiv@divisor+1,w
  5951     06C0  1C03               	skipc
  5952     06C1  0F73               	incfsz	___lldiv@divisor+1,w
  5953     06C2  02F7               	subwf	___lldiv@dividend+1,f
  5954     06C3  0874               	movf	___lldiv@divisor+2,w
  5955     06C4  1C03               	skipc
  5956     06C5  0F74               	incfsz	___lldiv@divisor+2,w
  5957     06C6  02F8               	subwf	___lldiv@dividend+2,f
  5958     06C7  0875               	movf	___lldiv@divisor+3,w
  5959     06C8  1C03               	skipc
  5960     06C9  0F75               	incfsz	___lldiv@divisor+3,w
  5961     06CA  02F9               	subwf	___lldiv@dividend+3,f
  5962     06CB                     l3853:
  5963     06CB  1421               	bsf	___lldiv@quotient,0
  5964     06CC                     l3855:
  5965     06CC  3001               	movlw	1
  5966     06CD                     u3495:
  5967     06CD  1003               	clrc
  5968     06CE  0CF5               	rrf	___lldiv@divisor+3,f
  5969     06CF  0CF4               	rrf	___lldiv@divisor+2,f
  5970     06D0  0CF3               	rrf	___lldiv@divisor+1,f
  5971     06D1  0CF2               	rrf	___lldiv@divisor,f
  5972     06D2  3EFF               	addlw	-1
  5973     06D3  1D03               	skipz
  5974     06D4  2ECD               	goto	u3495
  5975     06D5                     l3857:
  5976     06D5  3001               	movlw	1
  5977     06D6  02A5               	subwf	___lldiv@counter,f
  5978     06D7  1D03               	btfss	3,2
  5979     06D8  2EDA               	goto	u3501
  5980     06D9  2EDB               	goto	u3500
  5981     06DA                     u3501:
  5982     06DA  2EA2               	goto	l3847
  5983     06DB                     u3500:
  5984     06DB                     l3859:
  5985     06DB  0824               	movf	___lldiv@quotient+3,w
  5986     06DC  00F5               	movwf	?___lldiv+3
  5987     06DD  0823               	movf	___lldiv@quotient+2,w
  5988     06DE  00F4               	movwf	?___lldiv+2
  5989     06DF  0822               	movf	___lldiv@quotient+1,w
  5990     06E0  00F3               	movwf	?___lldiv+1
  5991     06E1  0821               	movf	___lldiv@quotient,w
  5992     06E2  00F2               	movwf	?___lldiv
  5993     06E3                     l674:
  5994     06E3  0008               	return
  5995     06E4                     __end_of___lldiv:
  5996                           
  5997                           	psect	text14
  5998     1145                     __ptext14:	
  5999 ;; *************** function _init_ds1307 *****************
  6000 ;; Defined at:
  6001 ;;		line 9 in file "ds1307.c"
  6002 ;; Parameters:    Size  Location     Type
  6003 ;;		None
  6004 ;; Auto vars:     Size  Location     Type
  6005 ;;  dummy           1    6[COMMON] unsigned char 
  6006 ;; Return value:  Size  Location     Type
  6007 ;;                  1    wreg      void 
  6008 ;; Registers used:
  6009 ;;		wreg, status,2, status,0, pclath, cstack
  6010 ;; Tracked objects:
  6011 ;;		On entry : 0/0
  6012 ;;		On exit  : 0/0
  6013 ;;		Unchanged: 0/0
  6014 ;; Data sizes:     COMMON   BANK0   BANK1   BANK3   BANK2
  6015 ;;      Params:         0       0       0       0       0
  6016 ;;      Locals:         1       0       0       0       0
  6017 ;;      Temps:          0       0       0       0       0
  6018 ;;      Totals:         1       0       0       0       0
  6019 ;;Total ram usage:        1 bytes
  6020 ;; Hardware stack levels used: 1
  6021 ;; Hardware stack levels required when called: 5
  6022 ;; This function calls:
  6023 ;;		_read_ds1307
  6024 ;;		_write_ds1307
  6025 ;; This function is called by:
  6026 ;;		_init_config
  6027 ;; This function uses a non-reentrant model
  6028 ;;
  6029                           
  6030     1145                     _init_ds1307:	
  6031                           ;psect for function _init_ds1307
  6032                           
  6033     1145                     l3971:	
  6034                           ;incstack = 0
  6035                           ; Regs used in _init_ds1307: [wreg+status,2+status,0+pclath+cstack]
  6036                           
  6037                           
  6038                           ;ds1307.c: 11:     unsigned char dummy;;ds1307.c: 13:     dummy = read_ds1307(0x00);
  6039     1145  3000               	movlw	0
  6040     1146  160A  118A  22AE  160A  118A  	fcall	_read_ds1307
  6041     114B  00F6               	movwf	init_ds1307@dummy
  6042     114C                     l3973:
  6043                           
  6044                           ;ds1307.c: 14:     dummy = dummy & 0x7F;
  6045     114C  307F               	movlw	127
  6046     114D  05F6               	andwf	init_ds1307@dummy,f
  6047     114E                     l3975:
  6048                           
  6049                           ;ds1307.c: 15:     write_ds1307(0x00, dummy);
  6050     114E  0876               	movf	init_ds1307@dummy,w
  6051     114F  00F3               	movwf	write_ds1307@data
  6052     1150  3000               	movlw	0
  6053     1151  160A  118A  2191  160A  118A  	fcall	_write_ds1307
  6054     1156                     l282:
  6055     1156  0008               	return
  6056     1157                     __end_of_init_ds1307:
  6057                           
  6058                           	psect	text15
  6059     10C1                     __ptext15:	
  6060 ;; *************** function _init_digital_keypad *****************
  6061 ;; Defined at:
  6062 ;;		line 8 in file "digital_keypad.c"
  6063 ;; Parameters:    Size  Location     Type
  6064 ;;		None
  6065 ;; Auto vars:     Size  Location     Type
  6066 ;;		None
  6067 ;; Return value:  Size  Location     Type
  6068 ;;                  1    wreg      void 
  6069 ;; Registers used:
  6070 ;;		wreg, status,2
  6071 ;; Tracked objects:
  6072 ;;		On entry : 0/0
  6073 ;;		On exit  : 0/0
  6074 ;;		Unchanged: 0/0
  6075 ;; Data sizes:     COMMON   BANK0   BANK1   BANK3   BANK2
  6076 ;;      Params:         0       0       0       0       0
  6077 ;;      Locals:         0       0       0       0       0
  6078 ;;      Temps:          0       0       0       0       0
  6079 ;;      Totals:         0       0       0       0       0
  6080 ;;Total ram usage:        0 bytes
  6081 ;; Hardware stack levels used: 1
  6082 ;; Hardware stack levels required when called: 1
  6083 ;; This function calls:
  6084 ;;		Nothing
  6085 ;; This function is called by:
  6086 ;;		_init_config
  6087 ;; This function uses a non-reentrant model
  6088 ;;
  6089                           
  6090     10C1                     _init_digital_keypad:	
  6091                           ;psect for function _init_digital_keypad
  6092                           
  6093     10C1                     l3969:	
  6094                           ;incstack = 0
  6095                           ; Regs used in _init_digital_keypad: [wreg+status,2]
  6096                           
  6097                           
  6098                           ;digital_keypad.c: 11:     TRISB = TRISB | 0x3F;
  6099     10C1  1683               	bsf	3,5	;RP0=1, select bank1
  6100     10C2  1303               	bcf	3,6	;RP1=0, select bank1
  6101     10C3  0806               	movf	6,w	;volatile
  6102     10C4  383F               	iorlw	63
  6103     10C5  0086               	movwf	6	;volatile
  6104     10C6                     l247:
  6105     10C6  0008               	return
  6106     10C7                     __end_of_init_digital_keypad:
  6107                           
  6108                           	psect	text16
  6109     110F                     __ptext16:	
  6110 ;; *************** function _init_clcd *****************
  6111 ;; Defined at:
  6112 ;;		line 41 in file "clcd.c"
  6113 ;; Parameters:    Size  Location     Type
  6114 ;;		None
  6115 ;; Auto vars:     Size  Location     Type
  6116 ;;		None
  6117 ;; Return value:  Size  Location     Type
  6118 ;;                  1    wreg      void 
  6119 ;; Registers used:
  6120 ;;		wreg, status,2, status,0, pclath, cstack
  6121 ;; Tracked objects:
  6122 ;;		On entry : 0/0
  6123 ;;		On exit  : 0/0
  6124 ;;		Unchanged: 0/0
  6125 ;; Data sizes:     COMMON   BANK0   BANK1   BANK3   BANK2
  6126 ;;      Params:         0       0       0       0       0
  6127 ;;      Locals:         0       0       0       0       0
  6128 ;;      Temps:          0       0       0       0       0
  6129 ;;      Totals:         0       0       0       0       0
  6130 ;;Total ram usage:        0 bytes
  6131 ;; Hardware stack levels used: 1
  6132 ;; Hardware stack levels required when called: 3
  6133 ;; This function calls:
  6134 ;;		_init_display_controller
  6135 ;; This function is called by:
  6136 ;;		_init_config
  6137 ;; This function uses a non-reentrant model
  6138 ;;
  6139                           
  6140     110F                     _init_clcd:	
  6141                           ;psect for function _init_clcd
  6142                           
  6143     110F                     l3961:	
  6144                           ;incstack = 0
  6145                           ; Regs used in _init_clcd: [wreg+status,2+status,0+pclath+cstack]
  6146                           
  6147                           
  6148                           ;clcd.c: 44:     TRISD = 0x00;
  6149     110F  1683               	bsf	3,5	;RP0=1, select bank1
  6150     1110  1303               	bcf	3,6	;RP1=0, select bank1
  6151     1111  0188               	clrf	8	;volatile
  6152     1112                     l3963:
  6153                           
  6154                           ;clcd.c: 47:     TRISE2 = 0;
  6155     1112  1109               	bcf	9,2	;volatile
  6156     1113                     l3965:
  6157                           
  6158                           ;clcd.c: 48:     TRISE1 = 0;
  6159     1113  1089               	bcf	9,1	;volatile
  6160     1114                     l3967:
  6161                           
  6162                           ;clcd.c: 50:     init_display_controller();
  6163     1114  160A  118A  2627  160A  118A  	fcall	_init_display_controller
  6164     1119                     l231:
  6165     1119  0008               	return
  6166     111A                     __end_of_init_clcd:
  6167                           
  6168                           	psect	text17
  6169     1627                     __ptext17:	
  6170 ;; *************** function _init_display_controller *****************
  6171 ;; Defined at:
  6172 ;;		line 20 in file "clcd.c"
  6173 ;; Parameters:    Size  Location     Type
  6174 ;;		None
  6175 ;; Auto vars:     Size  Location     Type
  6176 ;;		None
  6177 ;; Return value:  Size  Location     Type
  6178 ;;                  1    wreg      void 
  6179 ;; Registers used:
  6180 ;;		wreg, status,2, status,0, pclath, cstack
  6181 ;; Tracked objects:
  6182 ;;		On entry : 0/0
  6183 ;;		On exit  : 0/0
  6184 ;;		Unchanged: 0/0
  6185 ;; Data sizes:     COMMON   BANK0   BANK1   BANK3   BANK2
  6186 ;;      Params:         0       0       0       0       0
  6187 ;;      Locals:         0       0       0       0       0
  6188 ;;      Temps:          2       0       0       0       0
  6189 ;;      Totals:         2       0       0       0       0
  6190 ;;Total ram usage:        2 bytes
  6191 ;; Hardware stack levels used: 1
  6192 ;; Hardware stack levels required when called: 2
  6193 ;; This function calls:
  6194 ;;		_clcd_write
  6195 ;; This function is called by:
  6196 ;;		_init_clcd
  6197 ;; This function uses a non-reentrant model
  6198 ;;
  6199                           
  6200     1627                     _init_display_controller:	
  6201                           ;psect for function _init_display_controller
  6202                           
  6203     1627                     l3805:	
  6204                           ;incstack = 0
  6205                           ; Regs used in _init_display_controller: [wreg+status,2+status,0+pclath+cstack]
  6206                           
  6207                           
  6208                           ;clcd.c: 23:     _delay((unsigned long)((30)*(20000000/4000.0)));
  6209     1627  30C3               	movlw	195
  6210     1628  00F7               	movwf	??_init_display_controller+1
  6211     1629  30CD               	movlw	205
  6212     162A  00F6               	movwf	??_init_display_controller
  6213     162B                     u5077:
  6214     162B  0BF6               	decfsz	??_init_display_controller,f
  6215     162C  2E2B               	goto	u5077
  6216     162D  0BF7               	decfsz	??_init_display_controller+1,f
  6217     162E  2E2B               	goto	u5077
  6218     162F                     l3807:
  6219                           
  6220                           ;clcd.c: 26:     clcd_write(0x33, 0);
  6221     162F  01F2               	clrf	clcd_write@mode
  6222     1630  3033               	movlw	51
  6223     1631  160A  118A  21AF  160A  118A  	fcall	_clcd_write
  6224     1636                     l3809:
  6225                           
  6226                           ;clcd.c: 27:     _delay((unsigned long)((4100)*(20000000/4000000.0)));
  6227     1636  301B               	movlw	27
  6228     1637  00F7               	movwf	??_init_display_controller+1
  6229     1638  309E               	movlw	158
  6230     1639  00F6               	movwf	??_init_display_controller
  6231     163A                     u5087:
  6232     163A  0BF6               	decfsz	??_init_display_controller,f
  6233     163B  2E3A               	goto	u5087
  6234     163C  0BF7               	decfsz	??_init_display_controller+1,f
  6235     163D  2E3A               	goto	u5087
  6236     163E  0000               	nop
  6237                           
  6238                           ;clcd.c: 28:     clcd_write(0x33, 0);
  6239     163F  01F2               	clrf	clcd_write@mode
  6240     1640  3033               	movlw	51
  6241     1641  160A  118A  21AF  160A  118A  	fcall	_clcd_write
  6242     1646                     l3811:
  6243                           
  6244                           ;clcd.c: 29:     _delay((unsigned long)((100)*(20000000/4000000.0)));
  6245     1646  30A6               	movlw	166
  6246     1647  00F6               	movwf	??_init_display_controller
  6247     1648                     u5097:
  6248     1648  0BF6               	decfsz	??_init_display_controller,f
  6249     1649  2E48               	goto	u5097
  6250     164A  0000               	nop
  6251     164B                     l3813:
  6252                           
  6253                           ;clcd.c: 30:     clcd_write(0x33, 0);
  6254     164B  01F2               	clrf	clcd_write@mode
  6255     164C  3033               	movlw	51
  6256     164D  160A  118A  21AF  160A  118A  	fcall	_clcd_write
  6257     1652                     l3815:
  6258                           
  6259                           ;clcd.c: 31:     _delay((unsigned long)((1)*(20000000/4000000.0)));
  6260     1652  2E53               	nop2	;2 cycle nop
  6261     1653  2E54               	nop2	;2 cycle nop
  6262     1654  0000               	nop
  6263     1655                     l3817:
  6264                           
  6265                           ;clcd.c: 33:     clcd_write(0x38, 0);
  6266     1655  01F2               	clrf	clcd_write@mode
  6267     1656  3038               	movlw	56
  6268     1657  160A  118A  21AF  160A  118A  	fcall	_clcd_write
  6269     165C                     l3819:
  6270                           
  6271                           ;clcd.c: 34:     _delay((unsigned long)((100)*(20000000/4000000.0)));
  6272     165C  30A6               	movlw	166
  6273     165D  00F6               	movwf	??_init_display_controller
  6274     165E                     u5107:
  6275     165E  0BF6               	decfsz	??_init_display_controller,f
  6276     165F  2E5E               	goto	u5107
  6277     1660  0000               	nop
  6278                           
  6279                           ;clcd.c: 35:     clcd_write(0x01, 0);
  6280     1661  01F2               	clrf	clcd_write@mode
  6281     1662  3001               	movlw	1
  6282     1663  160A  118A  21AF  160A  118A  	fcall	_clcd_write
  6283     1668                     l3821:
  6284                           
  6285                           ;clcd.c: 36:     _delay((unsigned long)((500)*(20000000/4000000.0)));
  6286     1668  3004               	movlw	4
  6287     1669  00F7               	movwf	??_init_display_controller+1
  6288     166A  303D               	movlw	61
  6289     166B  00F6               	movwf	??_init_display_controller
  6290     166C                     u5117:
  6291     166C  0BF6               	decfsz	??_init_display_controller,f
  6292     166D  2E6C               	goto	u5117
  6293     166E  0BF7               	decfsz	??_init_display_controller+1,f
  6294     166F  2E6C               	goto	u5117
  6295     1670  2E71               	nop2
  6296     1671                     l3823:
  6297                           
  6298                           ;clcd.c: 37:     clcd_write(0x0C, 0);
  6299     1671  01F2               	clrf	clcd_write@mode
  6300     1672  300C               	movlw	12
  6301     1673  160A  118A  21AF  160A  118A  	fcall	_clcd_write
  6302                           
  6303                           ;clcd.c: 38:     _delay((unsigned long)((100)*(20000000/4000000.0)));
  6304     1678  30A6               	movlw	166
  6305     1679  00F6               	movwf	??_init_display_controller
  6306     167A                     u5127:
  6307     167A  0BF6               	decfsz	??_init_display_controller,f
  6308     167B  2E7A               	goto	u5127
  6309     167C  0000               	nop
  6310     167D                     l228:
  6311     167D  0008               	return
  6312     167E                     __end_of_init_display_controller:
  6313                           
  6314                           	psect	text18
  6315     10CD                     __ptext18:	
  6316 ;; *************** function _init_adc *****************
  6317 ;; Defined at:
  6318 ;;		line 7 in file "adc.c"
  6319 ;; Parameters:    Size  Location     Type
  6320 ;;		None
  6321 ;; Auto vars:     Size  Location     Type
  6322 ;;		None
  6323 ;; Return value:  Size  Location     Type
  6324 ;;                  1    wreg      void 
  6325 ;; Registers used:
  6326 ;;		None
  6327 ;; Tracked objects:
  6328 ;;		On entry : 0/0
  6329 ;;		On exit  : 0/0
  6330 ;;		Unchanged: 0/0
  6331 ;; Data sizes:     COMMON   BANK0   BANK1   BANK3   BANK2
  6332 ;;      Params:         0       0       0       0       0
  6333 ;;      Locals:         0       0       0       0       0
  6334 ;;      Temps:          0       0       0       0       0
  6335 ;;      Totals:         0       0       0       0       0
  6336 ;;Total ram usage:        0 bytes
  6337 ;; Hardware stack levels used: 1
  6338 ;; Hardware stack levels required when called: 1
  6339 ;; This function calls:
  6340 ;;		Nothing
  6341 ;; This function is called by:
  6342 ;;		_init_config
  6343 ;; This function uses a non-reentrant model
  6344 ;;
  6345                           
  6346     10CD                     _init_adc:	
  6347                           ;psect for function _init_adc
  6348                           
  6349     10CD                     l3863:	
  6350                           ;incstack = 0
  6351                           ; Regs used in _init_adc: []
  6352                           
  6353                           
  6354                           ;adc.c: 10:     ADFM = 1;
  6355     10CD  1683               	bsf	3,5	;RP0=1, select bank1
  6356     10CE  1303               	bcf	3,6	;RP1=0, select bank1
  6357     10CF  179F               	bsf	31,7	;volatile
  6358                           
  6359                           ;adc.c: 13:     ADON = 1;
  6360     10D0  1283               	bcf	3,5	;RP0=0, select bank0
  6361     10D1  1303               	bcf	3,6	;RP1=0, select bank0
  6362     10D2  141F               	bsf	31,0	;volatile
  6363     10D3                     l15:
  6364     10D3  0008               	return
  6365     10D4                     __end_of_init_adc:
  6366                           
  6367                           	psect	text19
  6368     0A50                     __ptext19:	
  6369 ;; *************** function _download_log *****************
  6370 ;; Defined at:
  6371 ;;		line 354 in file "car_black_box.c"
  6372 ;; Parameters:    Size  Location     Type
  6373 ;;		None
  6374 ;; Auto vars:     Size  Location     Type
  6375 ;;  i               2   16[BANK0 ] int 
  6376 ;;  log            11    0[BANK0 ] unsigned char [11]
  6377 ;;  index           2   14[BANK0 ] int 
  6378 ;;  position        2   12[BANK0 ] int 
  6379 ;;  add             1   11[BANK0 ] unsigned char 
  6380 ;; Return value:  Size  Location     Type
  6381 ;;                  1    wreg      void 
  6382 ;; Registers used:
  6383 ;;		wreg, fsr0l, fsr0h, status,2, status,0, btemp+1, pclath, cstack
  6384 ;; Tracked objects:
  6385 ;;		On entry : 0/0
  6386 ;;		On exit  : 0/0
  6387 ;;		Unchanged: 0/0
  6388 ;; Data sizes:     COMMON   BANK0   BANK1   BANK3   BANK2
  6389 ;;      Params:         0       0       0       0       0
  6390 ;;      Locals:         0      18       0       0       0
  6391 ;;      Temps:          1       0       0       0       0
  6392 ;;      Totals:         1      18       0       0       0
  6393 ;;Total ram usage:       19 bytes
  6394 ;; Hardware stack levels used: 1
  6395 ;; Hardware stack levels required when called: 5
  6396 ;; This function calls:
  6397 ;;		___bmul
  6398 ;;		_ext_eeprom_read
  6399 ;;		_putchar
  6400 ;;		_puts
  6401 ;; This function is called by:
  6402 ;;		_main
  6403 ;; This function uses a non-reentrant model
  6404 ;;
  6405                           
  6406     0A50                     _download_log:	
  6407                           ;psect for function _download_log
  6408                           
  6409     0A50                     l4381:	
  6410                           ;incstack = 0
  6411                           ; Regs used in _download_log: [wreg-fsr0h+status,2+status,0+btemp+1+pclath+cstack]
  6412                           
  6413                           
  6414                           ;car_black_box.c: 356:     int index = -1;
  6415     0A50  30FF               	movlw	255
  6416     0A51  1283               	bcf	3,5	;RP0=0, select bank0
  6417     0A52  1303               	bcf	3,6	;RP1=0, select bank0
  6418     0A53  00AE               	movwf	download_log@index
  6419     0A54  30FF               	movlw	255
  6420     0A55  00AF               	movwf	download_log@index+1
  6421     0A56                     l4383:
  6422                           
  6423                           ;car_black_box.c: 357:     char log[11];;car_black_box.c: 358:     log[10] = 0;
  6424     0A56  01AA               	clrf	download_log@log+10
  6425     0A57                     l4385:
  6426     0A57                     l4387:
  6427                           
  6428                           ;car_black_box.c: 360:     unsigned char add;;car_black_box.c: 362:     if (event_count 
      +                          == -1)
  6429     0A57  0A57               	incf	_event_count,w
  6430     0A58  1D03               	skipz
  6431     0A59  2A5E               	goto	u4291
  6432     0A5A  0A58               	incf	_event_count+1,w
  6433     0A5B  1D03               	btfss	3,2
  6434     0A5C  2A5E               	goto	u4291
  6435     0A5D  2A5F               	goto	u4290
  6436     0A5E                     u4291:
  6437     0A5E  2A69               	goto	l4391
  6438     0A5F                     u4290:
  6439     0A5F                     l4389:
  6440                           
  6441                           ;car_black_box.c: 363:     {;car_black_box.c: 364:         puts("No logs available");
  6442     0A5F  3057               	movlw	low (STR_20| (0+32768))
  6443     0A60  00F3               	movwf	puts@s
  6444     0A61  3087               	movlw	high (STR_20| (0+32768))
  6445     0A62  00F4               	movwf	puts@s+1
  6446     0A63  160A  118A  2236  120A  158A  	fcall	_puts
  6447                           
  6448                           ;car_black_box.c: 365:     }
  6449     0A68  2B6B               	goto	l145
  6450     0A69                     l4391:
  6451                           
  6452                           ;car_black_box.c: 367:     {;car_black_box.c: 368:         puts("Logs :");
  6453     0A69  30C0               	movlw	low (STR_21| (0+32768))
  6454     0A6A  00F3               	movwf	puts@s
  6455     0A6B  3088               	movlw	high (STR_21| (0+32768))
  6456     0A6C  00F4               	movwf	puts@s+1
  6457     0A6D  160A  118A  2236  120A  158A  	fcall	_puts
  6458     0A72                     l4393:
  6459                           
  6460                           ;car_black_box.c: 369:         putchar('\n');
  6461     0A72  300A               	movlw	10
  6462     0A73  160A  118A  2104  120A  158A  	fcall	_putchar
  6463     0A78                     l4395:
  6464                           
  6465                           ;car_black_box.c: 370:         puts("#     Time       Event    Speed");
  6466     0A78  3000               	movlw	low (STR_22| (0+32768))
  6467     0A79  00F3               	movwf	puts@s
  6468     0A7A  3087               	movlw	high (STR_22| (0+32768))
  6469     0A7B  00F4               	movwf	puts@s+1
  6470     0A7C  160A  118A  2236  120A  158A  	fcall	_puts
  6471                           
  6472                           ;car_black_box.c: 371:         putchar('\n');
  6473     0A81  300A               	movlw	10
  6474     0A82  160A  118A  2104  120A  158A  	fcall	_putchar
  6475                           
  6476                           ;car_black_box.c: 372:         putchar('\r');
  6477     0A87  300D               	movlw	13
  6478     0A88  160A  118A  2104  120A  158A  	fcall	_putchar
  6479                           
  6480                           ;car_black_box.c: 374:         while (index < event_count)
  6481     0A8D  2B5B               	goto	l4447
  6482     0A8E                     l4397:
  6483                           
  6484                           ;car_black_box.c: 375:         {;car_black_box.c: 376:             position = index + 1;
  6485     0A8E  1283               	bcf	3,5	;RP0=0, select bank0
  6486     0A8F  1303               	bcf	3,6	;RP1=0, select bank0
  6487     0A90  082E               	movf	download_log@index,w
  6488     0A91  3E01               	addlw	1
  6489     0A92  00AC               	movwf	download_log@position
  6490     0A93  082F               	movf	download_log@index+1,w
  6491     0A94  1803               	skipnc
  6492     0A95  3E01               	addlw	1
  6493     0A96  3E00               	addlw	0
  6494     0A97  00AD               	movwf	download_log@position+1
  6495     0A98                     l4399:
  6496                           
  6497                           ;car_black_box.c: 377:             index++;
  6498     0A98  3001               	movlw	1
  6499     0A99  07AE               	addwf	download_log@index,f
  6500     0A9A  1803               	skipnc
  6501     0A9B  0AAF               	incf	download_log@index+1,f
  6502     0A9C  3000               	movlw	0
  6503     0A9D  07AF               	addwf	download_log@index+1,f
  6504     0A9E                     l4401:
  6505                           
  6506                           ;car_black_box.c: 379:             for (int i = 0; i < 10; i++)
  6507     0A9E  01B0               	clrf	download_log@i
  6508     0A9F  01B1               	clrf	download_log@i+1
  6509     0AA0                     l4407:
  6510                           
  6511                           ;car_black_box.c: 380:             {;car_black_box.c: 381:                 add = positio
      +                          n * 10 + 5 + i;
  6512     0AA0  300A               	movlw	10
  6513     0AA1  00F2               	movwf	___bmul@multiplicand
  6514     0AA2  1283               	bcf	3,5	;RP0=0, select bank0
  6515     0AA3  1303               	bcf	3,6	;RP1=0, select bank0
  6516     0AA4  082C               	movf	download_log@position,w
  6517     0AA5  160A  118A  2169  120A  158A  	fcall	___bmul
  6518     0AAA  1283               	bcf	3,5	;RP0=0, select bank0
  6519     0AAB  1303               	bcf	3,6	;RP1=0, select bank0
  6520     0AAC  0730               	addwf	download_log@i,w
  6521     0AAD  3E05               	addlw	5
  6522     0AAE  00AB               	movwf	download_log@add
  6523     0AAF                     l4409:
  6524                           
  6525                           ;car_black_box.c: 382:                 log[i] = ext_eeprom_read(add);
  6526     0AAF  0830               	movf	download_log@i,w
  6527     0AB0  3E20               	addlw	(low (download_log@log| 0))& (0+255)
  6528     0AB1  0084               	movwf	4
  6529     0AB2  082B               	movf	download_log@add,w
  6530     0AB3  160A  118A  2304  120A  158A  	fcall	_ext_eeprom_read
  6531     0AB8  1383               	bcf	3,7	;select IRP bank0
  6532     0AB9  0080               	movwf	0
  6533     0ABA                     l4411:
  6534                           
  6535                           ;car_black_box.c: 383:             }
  6536     0ABA  3001               	movlw	1
  6537     0ABB  1283               	bcf	3,5	;RP0=0, select bank0
  6538     0ABC  1303               	bcf	3,6	;RP1=0, select bank0
  6539     0ABD  07B0               	addwf	download_log@i,f
  6540     0ABE  1803               	skipnc
  6541     0ABF  0AB1               	incf	download_log@i+1,f
  6542     0AC0  3000               	movlw	0
  6543     0AC1  07B1               	addwf	download_log@i+1,f
  6544     0AC2                     l4413:
  6545     0AC2  0831               	movf	download_log@i+1,w
  6546     0AC3  3A80               	xorlw	128
  6547     0AC4  00FF               	movwf	btemp+1
  6548     0AC5  3080               	movlw	128
  6549     0AC6  027F               	subwf	btemp+1,w
  6550     0AC7  1D03               	skipz
  6551     0AC8  2ACB               	goto	u4305
  6552     0AC9  300A               	movlw	10
  6553     0ACA  0230               	subwf	download_log@i,w
  6554     0ACB                     u4305:
  6555     0ACB  1C03               	skipc
  6556     0ACC  2ACE               	goto	u4301
  6557     0ACD  2ACF               	goto	u4300
  6558     0ACE                     u4301:
  6559     0ACE  2AA0               	goto	l4407
  6560     0ACF                     u4300:
  6561     0ACF                     l4415:
  6562                           
  6563                           ;car_black_box.c: 386:             putchar(index + '0');
  6564     0ACF  1283               	bcf	3,5	;RP0=0, select bank0
  6565     0AD0  1303               	bcf	3,6	;RP1=0, select bank0
  6566     0AD1  082E               	movf	download_log@index,w
  6567     0AD2  3E30               	addlw	48
  6568     0AD3  160A  118A  2104  120A  158A  	fcall	_putchar
  6569     0AD8                     l4417:
  6570                           
  6571                           ;car_black_box.c: 387:             puts("     ");
  6572     0AD8  3051               	movlw	low ((STR_29+12)| (0+32768))
  6573     0AD9  00F3               	movwf	puts@s
  6574     0ADA  3087               	movlw	high ((STR_29+12)| (0+32768))
  6575     0ADB  00F4               	movwf	puts@s+1
  6576     0ADC  160A  118A  2236  120A  158A  	fcall	_puts
  6577     0AE1                     l4419:
  6578                           
  6579                           ;car_black_box.c: 390:             putchar(log[0]);
  6580     0AE1  1283               	bcf	3,5	;RP0=0, select bank0
  6581     0AE2  1303               	bcf	3,6	;RP1=0, select bank0
  6582     0AE3  0820               	movf	download_log@log,w
  6583     0AE4  160A  118A  2104  120A  158A  	fcall	_putchar
  6584     0AE9                     l4421:
  6585                           
  6586                           ;car_black_box.c: 391:             putchar(log[1]);
  6587     0AE9  1283               	bcf	3,5	;RP0=0, select bank0
  6588     0AEA  1303               	bcf	3,6	;RP1=0, select bank0
  6589     0AEB  0821               	movf	download_log@log+1,w
  6590     0AEC  160A  118A  2104  120A  158A  	fcall	_putchar
  6591     0AF1                     l4423:
  6592                           
  6593                           ;car_black_box.c: 392:             putchar(':');
  6594     0AF1  303A               	movlw	58
  6595     0AF2  160A  118A  2104  120A  158A  	fcall	_putchar
  6596     0AF7                     l4425:
  6597                           
  6598                           ;car_black_box.c: 393:             putchar(log[2]);
  6599     0AF7  1283               	bcf	3,5	;RP0=0, select bank0
  6600     0AF8  1303               	bcf	3,6	;RP1=0, select bank0
  6601     0AF9  0822               	movf	download_log@log+2,w
  6602     0AFA  160A  118A  2104  120A  158A  	fcall	_putchar
  6603     0AFF                     l4427:
  6604                           
  6605                           ;car_black_box.c: 394:             putchar(log[3]);
  6606     0AFF  1283               	bcf	3,5	;RP0=0, select bank0
  6607     0B00  1303               	bcf	3,6	;RP1=0, select bank0
  6608     0B01  0823               	movf	download_log@log+3,w
  6609     0B02  160A  118A  2104  120A  158A  	fcall	_putchar
  6610     0B07                     l4429:
  6611                           
  6612                           ;car_black_box.c: 395:             putchar(':');
  6613     0B07  303A               	movlw	58
  6614     0B08  160A  118A  2104  120A  158A  	fcall	_putchar
  6615     0B0D                     l4431:
  6616                           
  6617                           ;car_black_box.c: 396:             putchar(log[4]);
  6618     0B0D  1283               	bcf	3,5	;RP0=0, select bank0
  6619     0B0E  1303               	bcf	3,6	;RP1=0, select bank0
  6620     0B0F  0824               	movf	download_log@log+4,w
  6621     0B10  160A  118A  2104  120A  158A  	fcall	_putchar
  6622     0B15                     l4433:
  6623                           
  6624                           ;car_black_box.c: 397:             putchar(log[5]);
  6625     0B15  1283               	bcf	3,5	;RP0=0, select bank0
  6626     0B16  1303               	bcf	3,6	;RP1=0, select bank0
  6627     0B17  0825               	movf	download_log@log+5,w
  6628     0B18  160A  118A  2104  120A  158A  	fcall	_putchar
  6629     0B1D                     l4435:
  6630                           
  6631                           ;car_black_box.c: 398:             puts("   ");
  6632     0B1D  3053               	movlw	low ((STR_29+14)| (0+32768))
  6633     0B1E  00F3               	movwf	puts@s
  6634     0B1F  3087               	movlw	high ((STR_29+14)| (0+32768))
  6635     0B20  00F4               	movwf	puts@s+1
  6636     0B21  160A  118A  2236  120A  158A  	fcall	_puts
  6637                           
  6638                           ;car_black_box.c: 401:             putchar(log[6]);
  6639     0B26  1283               	bcf	3,5	;RP0=0, select bank0
  6640     0B27  1303               	bcf	3,6	;RP1=0, select bank0
  6641     0B28  0826               	movf	download_log@log+6,w
  6642     0B29  160A  118A  2104  120A  158A  	fcall	_putchar
  6643                           
  6644                           ;car_black_box.c: 402:             putchar(log[7]);
  6645     0B2E  1283               	bcf	3,5	;RP0=0, select bank0
  6646     0B2F  1303               	bcf	3,6	;RP1=0, select bank0
  6647     0B30  0827               	movf	download_log@log+7,w
  6648     0B31  160A  118A  2104  120A  158A  	fcall	_putchar
  6649     0B36                     l4437:
  6650                           
  6651                           ;car_black_box.c: 403:             puts("        ");
  6652     0B36  304E               	movlw	low ((STR_29+9)| (0+32768))
  6653     0B37  00F3               	movwf	puts@s
  6654     0B38  3087               	movlw	high ((STR_29+9)| (0+32768))
  6655     0B39  00F4               	movwf	puts@s+1
  6656     0B3A  160A  118A  2236  120A  158A  	fcall	_puts
  6657     0B3F                     l4439:
  6658                           
  6659                           ;car_black_box.c: 406:             putchar(log[8]);
  6660     0B3F  1283               	bcf	3,5	;RP0=0, select bank0
  6661     0B40  1303               	bcf	3,6	;RP1=0, select bank0
  6662     0B41  0828               	movf	download_log@log+8,w
  6663     0B42  160A  118A  2104  120A  158A  	fcall	_putchar
  6664     0B47                     l4441:
  6665                           
  6666                           ;car_black_box.c: 407:             putchar(log[9]);
  6667     0B47  1283               	bcf	3,5	;RP0=0, select bank0
  6668     0B48  1303               	bcf	3,6	;RP1=0, select bank0
  6669     0B49  0829               	movf	download_log@log+9,w
  6670     0B4A  160A  118A  2104  120A  158A  	fcall	_putchar
  6671     0B4F                     l4443:
  6672                           
  6673                           ;car_black_box.c: 408:             putchar('\n');
  6674     0B4F  300A               	movlw	10
  6675     0B50  160A  118A  2104  120A  158A  	fcall	_putchar
  6676     0B55                     l4445:
  6677                           
  6678                           ;car_black_box.c: 409:             putchar('\r');
  6679     0B55  300D               	movlw	13
  6680     0B56  160A  118A  2104  120A  158A  	fcall	_putchar
  6681     0B5B                     l4447:
  6682                           
  6683                           ;car_black_box.c: 374:         while (index < event_count)
  6684     0B5B  1283               	bcf	3,5	;RP0=0, select bank0
  6685     0B5C  1303               	bcf	3,6	;RP1=0, select bank0
  6686     0B5D  082F               	movf	download_log@index+1,w
  6687     0B5E  3A80               	xorlw	128
  6688     0B5F  00F6               	movwf	??_download_log
  6689     0B60  0858               	movf	_event_count+1,w
  6690     0B61  3A80               	xorlw	128
  6691     0B62  0276               	subwf	??_download_log,w
  6692     0B63  1D03               	skipz
  6693     0B64  2B67               	goto	u4315
  6694     0B65  0857               	movf	_event_count,w
  6695     0B66  022E               	subwf	download_log@index,w
  6696     0B67                     u4315:
  6697     0B67  1C03               	skipc
  6698     0B68  2B6A               	goto	u4311
  6699     0B69  2B6B               	goto	u4310
  6700     0B6A                     u4311:
  6701     0B6A  2A8E               	goto	l4397
  6702     0B6B                     u4310:
  6703     0B6B                     l145:
  6704     0B6B  0008               	return
  6705     0B6C                     __end_of_download_log:
  6706                           
  6707                           	psect	text20
  6708     1236                     __ptext20:	
  6709 ;; *************** function _puts *****************
  6710 ;; Defined at:
  6711 ;;		line 50 in file "uart.c"
  6712 ;; Parameters:    Size  Location     Type
  6713 ;;  s               2    3[COMMON] PTR const unsigned char 
  6714 ;;		 -> STR_25(9), STR_24(4), STR_23(6), STR_22(32), 
  6715 ;;		 -> STR_21(7), STR_20(18), 
  6716 ;; Auto vars:     Size  Location     Type
  6717 ;;		None
  6718 ;; Return value:  Size  Location     Type
  6719 ;;                  1    wreg      void 
  6720 ;; Registers used:
  6721 ;;		wreg, fsr0l, fsr0h, status,2, status,0, btemp+1, pclath, cstack
  6722 ;; Tracked objects:
  6723 ;;		On entry : 0/0
  6724 ;;		On exit  : 0/0
  6725 ;;		Unchanged: 0/0
  6726 ;; Data sizes:     COMMON   BANK0   BANK1   BANK3   BANK2
  6727 ;;      Params:         2       0       0       0       0
  6728 ;;      Locals:         0       0       0       0       0
  6729 ;;      Temps:          0       0       0       0       0
  6730 ;;      Totals:         2       0       0       0       0
  6731 ;;Total ram usage:        2 bytes
  6732 ;; Hardware stack levels used: 1
  6733 ;; Hardware stack levels required when called: 2
  6734 ;; This function calls:
  6735 ;;		_putchar
  6736 ;; This function is called by:
  6737 ;;		_download_log
  6738 ;; This function uses a non-reentrant model
  6739 ;;
  6740                           
  6741     1236                     _puts:	
  6742                           ;psect for function _puts
  6743                           
  6744     1236                     l3953:	
  6745                           ;incstack = 0
  6746                           ; Regs used in _puts: [wreg-fsr0h+status,2+status,0+btemp+1+pclath+cstack]
  6747                           
  6748                           
  6749                           ;uart.c: 50: void puts(const char *s);uart.c: 51: {;uart.c: 52:     while (*s)
  6750     1236  2A4B               	goto	l3959
  6751     1237                     l3955:
  6752                           
  6753                           ;uart.c: 53:     {;uart.c: 54:         putchar(*s++);
  6754     1237  0874               	movf	puts@s+1,w
  6755     1238  00FF               	movwf	btemp+1
  6756     1239  0873               	movf	puts@s,w
  6757     123A  0084               	movwf	4
  6758     123B  160A  118A  2000  160A  118A  	fcall	stringtab
  6759     1240  160A  118A  2104  160A  118A  	fcall	_putchar
  6760     1245                     l3957:
  6761     1245  3001               	movlw	1
  6762     1246  07F3               	addwf	puts@s,f
  6763     1247  1803               	skipnc
  6764     1248  0AF4               	incf	puts@s+1,f
  6765     1249  3000               	movlw	0
  6766     124A  07F4               	addwf	puts@s+1,f
  6767     124B                     l3959:
  6768                           
  6769                           ;uart.c: 52:     while (*s)
  6770     124B  0874               	movf	puts@s+1,w
  6771     124C  1283               	bcf	3,5	;RP0=0, select bank0
  6772     124D  1303               	bcf	3,6	;RP1=0, select bank0
  6773     124E  00FF               	movwf	btemp+1
  6774     124F  0873               	movf	puts@s,w
  6775     1250  0084               	movwf	4
  6776     1251  160A  118A  2000  160A  118A  	fcall	stringtab
  6777     1256  3A00               	xorlw	0
  6778     1257  1D03               	skipz
  6779     1258  2A5A               	goto	u3621
  6780     1259  2A5B               	goto	u3620
  6781     125A                     u3621:
  6782     125A  2A37               	goto	l3955
  6783     125B                     u3620:
  6784     125B                     l552:
  6785     125B  0008               	return
  6786     125C                     __end_of_puts:
  6787                           
  6788                           	psect	text21
  6789     1104                     __ptext21:	
  6790 ;; *************** function _putchar *****************
  6791 ;; Defined at:
  6792 ;;		line 35 in file "uart.c"
  6793 ;; Parameters:    Size  Location     Type
  6794 ;;  data            1    wreg     unsigned char 
  6795 ;; Auto vars:     Size  Location     Type
  6796 ;;  data            1    2[COMMON] unsigned char 
  6797 ;; Return value:  Size  Location     Type
  6798 ;;                  1    wreg      void 
  6799 ;; Registers used:
  6800 ;;		wreg
  6801 ;; Tracked objects:
  6802 ;;		On entry : 0/0
  6803 ;;		On exit  : 0/0
  6804 ;;		Unchanged: 0/0
  6805 ;; Data sizes:     COMMON   BANK0   BANK1   BANK3   BANK2
  6806 ;;      Params:         0       0       0       0       0
  6807 ;;      Locals:         1       0       0       0       0
  6808 ;;      Temps:          0       0       0       0       0
  6809 ;;      Totals:         1       0       0       0       0
  6810 ;;Total ram usage:        1 bytes
  6811 ;; Hardware stack levels used: 1
  6812 ;; Hardware stack levels required when called: 1
  6813 ;; This function calls:
  6814 ;;		Nothing
  6815 ;; This function is called by:
  6816 ;;		_download_log
  6817 ;;		_puts
  6818 ;; This function uses a non-reentrant model
  6819 ;;
  6820                           
  6821     1104                     _putchar:	
  6822                           ;psect for function _putchar
  6823                           
  6824                           
  6825                           ;incstack = 0
  6826                           ; Regs used in _putchar: [wreg]
  6827                           ;putchar@data stored from wreg
  6828     1104  00F2               	movwf	putchar@data
  6829     1105                     l3801:
  6830                           
  6831                           ;uart.c: 35: void putchar(unsigned char data);uart.c: 36: {;uart.c: 38:     TXREG = data
      +                          ;
  6832     1105  0872               	movf	putchar@data,w
  6833     1106  1283               	bcf	3,5	;RP0=0, select bank0
  6834     1107  1303               	bcf	3,6	;RP1=0, select bank0
  6835     1108  0099               	movwf	25	;volatile
  6836     1109                     l544:	
  6837                           ;uart.c: 44:     } while (TXIF != 1);
  6838                           
  6839     1109  1E0C               	btfss	12,4	;volatile
  6840     110A  290C               	goto	u3411
  6841     110B  290D               	goto	u3410
  6842     110C                     u3411:
  6843     110C  2909               	goto	l544
  6844     110D                     u3410:
  6845     110D                     l545:
  6846                           
  6847                           ;uart.c: 47:     TXIF = 0;
  6848     110D  120C               	bcf	12,4	;volatile
  6849     110E                     l546:
  6850     110E  0008               	return
  6851     110F                     __end_of_putchar:
  6852                           
  6853                           	psect	text22
  6854     1304                     __ptext22:	
  6855 ;; *************** function _ext_eeprom_read *****************
  6856 ;; Defined at:
  6857 ;;		line 9 in file "eeprom.c"
  6858 ;; Parameters:    Size  Location     Type
  6859 ;;  memory_loc      1    wreg     unsigned char 
  6860 ;; Auto vars:     Size  Location     Type
  6861 ;;  memory_loc      1    4[COMMON] unsigned char 
  6862 ;;  received_dat    1    5[COMMON] unsigned char 
  6863 ;; Return value:  Size  Location     Type
  6864 ;;                  1    wreg      unsigned char 
  6865 ;; Registers used:
  6866 ;;		wreg, status,2, status,0, pclath, cstack
  6867 ;; Tracked objects:
  6868 ;;		On entry : 0/0
  6869 ;;		On exit  : 0/0
  6870 ;;		Unchanged: 0/0
  6871 ;; Data sizes:     COMMON   BANK0   BANK1   BANK3   BANK2
  6872 ;;      Params:         0       0       0       0       0
  6873 ;;      Locals:         2       0       0       0       0
  6874 ;;      Temps:          0       0       0       0       0
  6875 ;;      Totals:         2       0       0       0       0
  6876 ;;Total ram usage:        2 bytes
  6877 ;; Hardware stack levels used: 1
  6878 ;; Hardware stack levels required when called: 4
  6879 ;; This function calls:
  6880 ;;		_i2c_read
  6881 ;;		_i2c_rep_start
  6882 ;;		_i2c_start
  6883 ;;		_i2c_stop
  6884 ;;		_i2c_write
  6885 ;; This function is called by:
  6886 ;;		_login
  6887 ;;		_view_log
  6888 ;;		_download_log
  6889 ;; This function uses a non-reentrant model
  6890 ;;
  6891                           
  6892     1304                     _ext_eeprom_read:	
  6893                           ;psect for function _ext_eeprom_read
  6894                           
  6895                           
  6896                           ;incstack = 0
  6897                           ; Regs used in _ext_eeprom_read: [wreg+status,2+status,0+pclath+cstack]
  6898                           ;ext_eeprom_read@memory_loc stored from wreg
  6899     1304  00F4               	movwf	ext_eeprom_read@memory_loc
  6900     1305                     l3911:
  6901     1305                     l3913:
  6902                           
  6903                           ;eeprom.c: 13:     i2c_start();
  6904     1305  160A  118A  20DC  160A  118A  	fcall	_i2c_start
  6905     130A                     l3915:
  6906                           
  6907                           ;eeprom.c: 14:     i2c_write(0xA0);
  6908     130A  30A0               	movlw	160
  6909     130B  160A  118A  20EE  160A  118A  	fcall	_i2c_write
  6910     1310                     l3917:
  6911                           
  6912                           ;eeprom.c: 15:     i2c_write(memory_loc);
  6913     1310  0874               	movf	ext_eeprom_read@memory_loc,w
  6914     1311  160A  118A  20EE  160A  118A  	fcall	_i2c_write
  6915     1316                     l3919:
  6916                           
  6917                           ;eeprom.c: 16:     i2c_rep_start();
  6918     1316  160A  118A  20F9  160A  118A  	fcall	_i2c_rep_start
  6919     131B                     l3921:
  6920                           
  6921                           ;eeprom.c: 17:     i2c_write(0xA1);
  6922     131B  30A1               	movlw	161
  6923     131C  160A  118A  20EE  160A  118A  	fcall	_i2c_write
  6924     1321                     l3923:
  6925                           
  6926                           ;eeprom.c: 18:     received_data = i2c_read(0);
  6927     1321  3000               	movlw	0
  6928     1322  160A  118A  21CF  160A  118A  	fcall	_i2c_read
  6929     1327  00F5               	movwf	ext_eeprom_read@received_data
  6930     1328                     l3925:
  6931                           
  6932                           ;eeprom.c: 19:     i2c_stop();
  6933     1328  160A  118A  20E5  160A  118A  	fcall	_i2c_stop
  6934     132D                     l3927:
  6935                           
  6936                           ;eeprom.c: 21:     return received_data;
  6937     132D  0875               	movf	ext_eeprom_read@received_data,w
  6938     132E                     l303:
  6939     132E  0008               	return
  6940     132F                     __end_of_ext_eeprom_read:
  6941                           
  6942                           	psect	text23
  6943     1169                     __ptext23:	
  6944 ;; *************** function ___bmul *****************
  6945 ;; Defined at:
  6946 ;;		line 4 in file "C:\Program Files\Microchip\xc8\v3.00\pic\sources\c99\common\Umul8.c"
  6947 ;; Parameters:    Size  Location     Type
  6948 ;;  multiplier      1    wreg     unsigned char 
  6949 ;;  multiplicand    1    2[COMMON] unsigned char 
  6950 ;; Auto vars:     Size  Location     Type
  6951 ;;  multiplier      1    4[COMMON] unsigned char 
  6952 ;;  product         1    3[COMMON] unsigned char 
  6953 ;; Return value:  Size  Location     Type
  6954 ;;                  1    wreg      unsigned char 
  6955 ;; Registers used:
  6956 ;;		wreg, status,2, status,0
  6957 ;; Tracked objects:
  6958 ;;		On entry : 0/0
  6959 ;;		On exit  : 0/0
  6960 ;;		Unchanged: 0/0
  6961 ;; Data sizes:     COMMON   BANK0   BANK1   BANK3   BANK2
  6962 ;;      Params:         1       0       0       0       0
  6963 ;;      Locals:         2       0       0       0       0
  6964 ;;      Temps:          0       0       0       0       0
  6965 ;;      Totals:         3       0       0       0       0
  6966 ;;Total ram usage:        3 bytes
  6967 ;; Hardware stack levels used: 1
  6968 ;; Hardware stack levels required when called: 1
  6969 ;; This function calls:
  6970 ;;		Nothing
  6971 ;; This function is called by:
  6972 ;;		_log_event
  6973 ;;		_view_log
  6974 ;;		_download_log
  6975 ;; This function uses a non-reentrant model
  6976 ;;
  6977                           
  6978     1169                     ___bmul:	
  6979                           ;psect for function ___bmul
  6980                           
  6981                           
  6982                           ;incstack = 0
  6983                           ; Regs used in ___bmul: [wreg+status,2+status,0]
  6984                           ;___bmul@multiplier stored from wreg
  6985     1169  00F4               	movwf	___bmul@multiplier
  6986     116A                     l3825:
  6987     116A  01F3               	clrf	___bmul@product
  6988     116B                     l3827:
  6989     116B  1C74               	btfss	___bmul@multiplier,0
  6990     116C  296E               	goto	u3421
  6991     116D  296F               	goto	u3420
  6992     116E                     u3421:
  6993     116E  2971               	goto	l3831
  6994     116F                     u3420:
  6995     116F                     l3829:
  6996     116F  0872               	movf	___bmul@multiplicand,w
  6997     1170  07F3               	addwf	___bmul@product,f
  6998     1171                     l3831:
  6999     1171  1003               	clrc
  7000     1172  0DF2               	rlf	___bmul@multiplicand,f
  7001     1173                     l3833:
  7002     1173  1003               	clrc
  7003     1174  0CF4               	rrf	___bmul@multiplier,f
  7004     1175  0874               	movf	___bmul@multiplier,w
  7005     1176  1D03               	btfss	3,2
  7006     1177  2979               	goto	u3431
  7007     1178  297A               	goto	u3430
  7008     1179                     u3431:
  7009     1179  296B               	goto	l3827
  7010     117A                     u3430:
  7011     117A                     l3835:
  7012     117A  0873               	movf	___bmul@product,w
  7013     117B                     l664:
  7014     117B  0008               	return
  7015     117C                     __end_of___bmul:
  7016                           
  7017                           	psect	text24
  7018     157C                     __ptext24:	
  7019 ;; *************** function _display_dashboard *****************
  7020 ;; Defined at:
  7021 ;;		line 58 in file "car_black_box.c"
  7022 ;; Parameters:    Size  Location     Type
  7023 ;;  event           1    5[BANK0 ] PTR unsigned char 
  7024 ;;		 -> main@event(3), 
  7025 ;;  speed           1    6[BANK0 ] unsigned char 
  7026 ;; Auto vars:     Size  Location     Type
  7027 ;;		None
  7028 ;; Return value:  Size  Location     Type
  7029 ;;                  1    wreg      void 
  7030 ;; Registers used:
  7031 ;;		wreg, fsr0l, fsr0h, status,2, status,0, btemp+1, pclath, cstack
  7032 ;; Tracked objects:
  7033 ;;		On entry : 0/0
  7034 ;;		On exit  : 0/0
  7035 ;;		Unchanged: 0/0
  7036 ;; Data sizes:     COMMON   BANK0   BANK1   BANK3   BANK2
  7037 ;;      Params:         0       2       0       0       0
  7038 ;;      Locals:         0       0       0       0       0
  7039 ;;      Temps:          0       2       0       0       0
  7040 ;;      Totals:         0       4       0       0       0
  7041 ;;Total ram usage:        4 bytes
  7042 ;; Hardware stack levels used: 1
  7043 ;; Hardware stack levels required when called: 7
  7044 ;; This function calls:
  7045 ;;		___awdiv
  7046 ;;		___awmod
  7047 ;;		_clcd_print
  7048 ;;		_clcd_putch
  7049 ;;		_display_time
  7050 ;; This function is called by:
  7051 ;;		_main
  7052 ;; This function uses a non-reentrant model
  7053 ;;
  7054                           
  7055     157C                     _display_dashboard:	
  7056                           ;psect for function _display_dashboard
  7057                           
  7058     157C                     l4139:	
  7059                           ;incstack = 0
  7060                           ; Regs used in _display_dashboard: [wreg-fsr0h+status,2+status,0+btemp+1+pclath+cstack]
  7061                           
  7062                           
  7063                           ;car_black_box.c: 58: void display_dashboard(unsigned char event[], unsigned char speed)
      +                          ;car_black_box.c: 59: {;car_black_box.c: 60:     clcd_print("  TIME     E  SP", (0x80 + 
      +                          0));
  7064     157C  30AD               	movlw	low (STR_6| (0+32768))
  7065     157D  00F6               	movwf	clcd_print@str
  7066     157E  3087               	movlw	high (STR_6| (0+32768))
  7067     157F  00F7               	movwf	clcd_print@str+1
  7068     1580  3080               	movlw	128
  7069     1581  00F8               	movwf	clcd_print@addr
  7070     1582  160A  118A  232F  160A  118A  	fcall	_clcd_print
  7071     1587                     l4141:
  7072                           
  7073                           ;car_black_box.c: 63:     display_time();
  7074     1587  160A  118A  26D8  160A  118A  	fcall	_display_time
  7075     158C                     l4143:
  7076                           
  7077                           ;car_black_box.c: 66:     clcd_print(event, (0xC0 + 11));
  7078     158C  1283               	bcf	3,5	;RP0=0, select bank0
  7079     158D  1303               	bcf	3,6	;RP1=0, select bank0
  7080     158E  0825               	movf	display_dashboard@event,w
  7081     158F  00F6               	movwf	clcd_print@str
  7082     1590  3001               	movlw	1
  7083     1591  00F7               	movwf	clcd_print@str+1
  7084     1592  30CB               	movlw	203
  7085     1593  00F8               	movwf	clcd_print@addr
  7086     1594  160A  118A  232F  160A  118A  	fcall	_clcd_print
  7087                           
  7088                           ;car_black_box.c: 69:     clcd_putch(speed / 10 + '0', (0xC0 + 14));
  7089     1599  30CE               	movlw	206
  7090     159A  1283               	bcf	3,5	;RP0=0, select bank0
  7091     159B  1303               	bcf	3,6	;RP1=0, select bank0
  7092     159C  00A3               	movwf	clcd_putch@addr
  7093     159D  300A               	movlw	10
  7094     159E  00F2               	movwf	___awdiv@divisor
  7095     159F  3000               	movlw	0
  7096     15A0  00F3               	movwf	___awdiv@divisor+1
  7097     15A1  0826               	movf	display_dashboard@speed,w
  7098     15A2  00A7               	movwf	??_display_dashboard
  7099     15A3  01A8               	clrf	??_display_dashboard+1
  7100     15A4  0827               	movf	??_display_dashboard,w
  7101     15A5  00F4               	movwf	___awdiv@dividend
  7102     15A6  0828               	movf	??_display_dashboard+1,w
  7103     15A7  00F5               	movwf	___awdiv@dividend+1
  7104     15A8  160A  118A  279D  160A  118A  	fcall	___awdiv
  7105     15AD  0872               	movf	?___awdiv,w
  7106     15AE  3E30               	addlw	48
  7107     15AF  160A  118A  217C  160A  118A  	fcall	_clcd_putch
  7108                           
  7109                           ;car_black_box.c: 70:     clcd_putch(speed % 10 + '0', (0xC0 + 15));
  7110     15B4  30CF               	movlw	207
  7111     15B5  1283               	bcf	3,5	;RP0=0, select bank0
  7112     15B6  1303               	bcf	3,6	;RP1=0, select bank0
  7113     15B7  00A3               	movwf	clcd_putch@addr
  7114     15B8  300A               	movlw	10
  7115     15B9  00F2               	movwf	___awmod@divisor
  7116     15BA  3000               	movlw	0
  7117     15BB  00F3               	movwf	___awmod@divisor+1
  7118     15BC  0826               	movf	display_dashboard@speed,w
  7119     15BD  00A7               	movwf	??_display_dashboard
  7120     15BE  01A8               	clrf	??_display_dashboard+1
  7121     15BF  0827               	movf	??_display_dashboard,w
  7122     15C0  00F4               	movwf	___awmod@dividend
  7123     15C1  0828               	movf	??_display_dashboard+1,w
  7124     15C2  00F5               	movwf	___awmod@dividend+1
  7125     15C3  160A  118A  25D0  160A  118A  	fcall	___awmod
  7126     15C8  0872               	movf	?___awmod,w
  7127     15C9  3E30               	addlw	48
  7128     15CA  160A  118A  217C  160A  118A  	fcall	_clcd_putch
  7129     15CF                     l70:
  7130     15CF  0008               	return
  7131     15D0                     __end_of_display_dashboard:
  7132                           
  7133                           	psect	text25
  7134     16D8                     __ptext25:	
  7135 ;; *************** function _display_time *****************
  7136 ;; Defined at:
  7137 ;;		line 39 in file "car_black_box.c"
  7138 ;; Parameters:    Size  Location     Type
  7139 ;;		None
  7140 ;; Auto vars:     Size  Location     Type
  7141 ;;		None
  7142 ;; Return value:  Size  Location     Type
  7143 ;;                  1    wreg      void 
  7144 ;; Registers used:
  7145 ;;		wreg, status,2, status,0, pclath, cstack
  7146 ;; Tracked objects:
  7147 ;;		On entry : 0/0
  7148 ;;		On exit  : 0/0
  7149 ;;		Unchanged: 0/0
  7150 ;; Data sizes:     COMMON   BANK0   BANK1   BANK3   BANK2
  7151 ;;      Params:         0       0       0       0       0
  7152 ;;      Locals:         0       0       0       0       0
  7153 ;;      Temps:          0       0       0       0       0
  7154 ;;      Totals:         0       0       0       0       0
  7155 ;;Total ram usage:        0 bytes
  7156 ;; Hardware stack levels used: 1
  7157 ;; Hardware stack levels required when called: 6
  7158 ;; This function calls:
  7159 ;;		_clcd_putch
  7160 ;;		_get_time
  7161 ;; This function is called by:
  7162 ;;		_display_dashboard
  7163 ;; This function uses a non-reentrant model
  7164 ;;
  7165                           
  7166     16D8                     _display_time:	
  7167                           ;psect for function _display_time
  7168                           
  7169     16D8                     l3865:	
  7170                           ;incstack = 0
  7171                           ; Regs used in _display_time: [wreg+status,2+status,0+pclath+cstack]
  7172                           
  7173                           
  7174                           ;car_black_box.c: 41:     get_time();
  7175     16D8  160A  118A  273A  160A  118A  	fcall	_get_time
  7176                           
  7177                           ;car_black_box.c: 44:     clcd_putch(time[0], (0xC0 + 2));
  7178     16DD  30C2               	movlw	194
  7179     16DE  1283               	bcf	3,5	;RP0=0, select bank0
  7180     16DF  1303               	bcf	3,6	;RP1=0, select bank0
  7181     16E0  00A3               	movwf	clcd_putch@addr
  7182     16E1  1683               	bsf	3,5	;RP0=1, select bank1
  7183     16E2  1303               	bcf	3,6	;RP1=0, select bank1
  7184     16E3  0838               	movf	_time^(0+128),w
  7185     16E4  160A  118A  217C  160A  118A  	fcall	_clcd_putch
  7186                           
  7187                           ;car_black_box.c: 45:     clcd_putch(time[1], (0xC0 + 3));
  7188     16E9  30C3               	movlw	195
  7189     16EA  1283               	bcf	3,5	;RP0=0, select bank0
  7190     16EB  1303               	bcf	3,6	;RP1=0, select bank0
  7191     16EC  00A3               	movwf	clcd_putch@addr
  7192     16ED  1683               	bsf	3,5	;RP0=1, select bank1
  7193     16EE  1303               	bcf	3,6	;RP1=0, select bank1
  7194     16EF  0839               	movf	(_time^(0+128)+1),w
  7195     16F0  160A  118A  217C  160A  118A  	fcall	_clcd_putch
  7196                           
  7197                           ;car_black_box.c: 46:     clcd_putch(':', (0xC0 + 4));
  7198     16F5  30C4               	movlw	196
  7199     16F6  1283               	bcf	3,5	;RP0=0, select bank0
  7200     16F7  1303               	bcf	3,6	;RP1=0, select bank0
  7201     16F8  00A3               	movwf	clcd_putch@addr
  7202     16F9  303A               	movlw	58
  7203     16FA  160A  118A  217C  160A  118A  	fcall	_clcd_putch
  7204                           
  7205                           ;car_black_box.c: 49:     clcd_putch(time[2], (0xC0 + 5));
  7206     16FF  30C5               	movlw	197
  7207     1700  1283               	bcf	3,5	;RP0=0, select bank0
  7208     1701  1303               	bcf	3,6	;RP1=0, select bank0
  7209     1702  00A3               	movwf	clcd_putch@addr
  7210     1703  1683               	bsf	3,5	;RP0=1, select bank1
  7211     1704  1303               	bcf	3,6	;RP1=0, select bank1
  7212     1705  083A               	movf	(_time^(0+128)+2),w
  7213     1706  160A  118A  217C  160A  118A  	fcall	_clcd_putch
  7214                           
  7215                           ;car_black_box.c: 50:     clcd_putch(time[3], (0xC0 + 6));
  7216     170B  30C6               	movlw	198
  7217     170C  1283               	bcf	3,5	;RP0=0, select bank0
  7218     170D  1303               	bcf	3,6	;RP1=0, select bank0
  7219     170E  00A3               	movwf	clcd_putch@addr
  7220     170F  1683               	bsf	3,5	;RP0=1, select bank1
  7221     1710  1303               	bcf	3,6	;RP1=0, select bank1
  7222     1711  083B               	movf	(_time^(0+128)+3),w
  7223     1712  160A  118A  217C  160A  118A  	fcall	_clcd_putch
  7224                           
  7225                           ;car_black_box.c: 51:     clcd_putch(':', (0xC0 + 7));
  7226     1717  30C7               	movlw	199
  7227     1718  1283               	bcf	3,5	;RP0=0, select bank0
  7228     1719  1303               	bcf	3,6	;RP1=0, select bank0
  7229     171A  00A3               	movwf	clcd_putch@addr
  7230     171B  303A               	movlw	58
  7231     171C  160A  118A  217C  160A  118A  	fcall	_clcd_putch
  7232                           
  7233                           ;car_black_box.c: 54:     clcd_putch(time[4], (0xC0 + 8));
  7234     1721  30C8               	movlw	200
  7235     1722  1283               	bcf	3,5	;RP0=0, select bank0
  7236     1723  1303               	bcf	3,6	;RP1=0, select bank0
  7237     1724  00A3               	movwf	clcd_putch@addr
  7238     1725  1683               	bsf	3,5	;RP0=1, select bank1
  7239     1726  1303               	bcf	3,6	;RP1=0, select bank1
  7240     1727  083C               	movf	(_time^(0+128)+4),w
  7241     1728  160A  118A  217C  160A  118A  	fcall	_clcd_putch
  7242                           
  7243                           ;car_black_box.c: 55:     clcd_putch(time[5], (0xC0 + 9));
  7244     172D  30C9               	movlw	201
  7245     172E  1283               	bcf	3,5	;RP0=0, select bank0
  7246     172F  1303               	bcf	3,6	;RP1=0, select bank0
  7247     1730  00A3               	movwf	clcd_putch@addr
  7248     1731  1683               	bsf	3,5	;RP0=1, select bank1
  7249     1732  1303               	bcf	3,6	;RP1=0, select bank1
  7250     1733  083D               	movf	(_time^(0+128)+5),w
  7251     1734  160A  118A  217C  160A  118A  	fcall	_clcd_putch
  7252     1739                     l67:
  7253     1739  0008               	return
  7254     173A                     __end_of_display_time:
  7255                           
  7256                           	psect	text26
  7257     15D0                     __ptext26:	
  7258 ;; *************** function ___awmod *****************
  7259 ;; Defined at:
  7260 ;;		line 5 in file "C:\Program Files\Microchip\xc8\v3.00\pic\sources\c99\common\awmod.c"
  7261 ;; Parameters:    Size  Location     Type
  7262 ;;  divisor         2    2[COMMON] int 
  7263 ;;  dividend        2    4[COMMON] int 
  7264 ;; Auto vars:     Size  Location     Type
  7265 ;;  sign            1    7[COMMON] unsigned char 
  7266 ;;  counter         1    6[COMMON] unsigned char 
  7267 ;; Return value:  Size  Location     Type
  7268 ;;                  2    2[COMMON] int 
  7269 ;; Registers used:
  7270 ;;		wreg, status,2, status,0
  7271 ;; Tracked objects:
  7272 ;;		On entry : 0/0
  7273 ;;		On exit  : 0/0
  7274 ;;		Unchanged: 0/0
  7275 ;; Data sizes:     COMMON   BANK0   BANK1   BANK3   BANK2
  7276 ;;      Params:         4       0       0       0       0
  7277 ;;      Locals:         2       0       0       0       0
  7278 ;;      Temps:          0       0       0       0       0
  7279 ;;      Totals:         6       0       0       0       0
  7280 ;;Total ram usage:        6 bytes
  7281 ;; Hardware stack levels used: 1
  7282 ;; Hardware stack levels required when called: 1
  7283 ;; This function calls:
  7284 ;;		Nothing
  7285 ;; This function is called by:
  7286 ;;		_display_dashboard
  7287 ;;		_log_car_event
  7288 ;; This function uses a non-reentrant model
  7289 ;;
  7290                           
  7291     15D0                     ___awmod:	
  7292                           ;psect for function ___awmod
  7293                           
  7294     15D0                     l4047:	
  7295                           ;incstack = 0
  7296                           ; Regs used in ___awmod: [wreg+status,2+status,0]
  7297                           
  7298     15D0  01F7               	clrf	___awmod@sign
  7299     15D1                     l4049:
  7300     15D1  1FF5               	btfss	___awmod@dividend+1,7
  7301     15D2  2DD4               	goto	u3791
  7302     15D3  2DD5               	goto	u3790
  7303     15D4                     u3791:
  7304     15D4  2DDC               	goto	l4055
  7305     15D5                     u3790:
  7306     15D5                     l4051:
  7307     15D5  09F4               	comf	___awmod@dividend,f
  7308     15D6  09F5               	comf	___awmod@dividend+1,f
  7309     15D7  0AF4               	incf	___awmod@dividend,f
  7310     15D8  1903               	skipnz
  7311     15D9  0AF5               	incf	___awmod@dividend+1,f
  7312     15DA                     l4053:
  7313     15DA  3001               	movlw	1
  7314     15DB  00F7               	movwf	___awmod@sign
  7315     15DC                     l4055:
  7316     15DC  1FF3               	btfss	___awmod@divisor+1,7
  7317     15DD  2DDF               	goto	u3801
  7318     15DE  2DE0               	goto	u3800
  7319     15DF                     u3801:
  7320     15DF  2DE5               	goto	l4059
  7321     15E0                     u3800:
  7322     15E0                     l4057:
  7323     15E0  09F2               	comf	___awmod@divisor,f
  7324     15E1  09F3               	comf	___awmod@divisor+1,f
  7325     15E2  0AF2               	incf	___awmod@divisor,f
  7326     15E3  1903               	skipnz
  7327     15E4  0AF3               	incf	___awmod@divisor+1,f
  7328     15E5                     l4059:
  7329     15E5  0872               	movf	___awmod@divisor,w
  7330     15E6  0473               	iorwf	___awmod@divisor+1,w
  7331     15E7  1903               	btfsc	3,2
  7332     15E8  2DEA               	goto	u3811
  7333     15E9  2DEB               	goto	u3810
  7334     15EA                     u3811:
  7335     15EA  2E18               	goto	l4077
  7336     15EB                     u3810:
  7337     15EB                     l4061:
  7338     15EB  3001               	movlw	1
  7339     15EC  00F6               	movwf	___awmod@counter
  7340     15ED  2DF7               	goto	l4067
  7341     15EE                     l4063:
  7342     15EE  3001               	movlw	1
  7343     15EF                     u3825:
  7344     15EF  1003               	clrc
  7345     15F0  0DF2               	rlf	___awmod@divisor,f
  7346     15F1  0DF3               	rlf	___awmod@divisor+1,f
  7347     15F2  3EFF               	addlw	-1
  7348     15F3  1D03               	skipz
  7349     15F4  2DEF               	goto	u3825
  7350     15F5                     l4065:
  7351     15F5  3001               	movlw	1
  7352     15F6  07F6               	addwf	___awmod@counter,f
  7353     15F7                     l4067:
  7354     15F7  1FF3               	btfss	___awmod@divisor+1,7
  7355     15F8  2DFA               	goto	u3831
  7356     15F9  2DFB               	goto	u3830
  7357     15FA                     u3831:
  7358     15FA  2DEE               	goto	l4063
  7359     15FB                     u3830:
  7360     15FB                     l4069:
  7361     15FB  0873               	movf	___awmod@divisor+1,w
  7362     15FC  0275               	subwf	___awmod@dividend+1,w
  7363     15FD  1D03               	skipz
  7364     15FE  2E01               	goto	u3845
  7365     15FF  0872               	movf	___awmod@divisor,w
  7366     1600  0274               	subwf	___awmod@dividend,w
  7367     1601                     u3845:
  7368     1601  1C03               	skipc
  7369     1602  2E04               	goto	u3841
  7370     1603  2E05               	goto	u3840
  7371     1604                     u3841:
  7372     1604  2E0B               	goto	l4073
  7373     1605                     u3840:
  7374     1605                     l4071:
  7375     1605  0872               	movf	___awmod@divisor,w
  7376     1606  02F4               	subwf	___awmod@dividend,f
  7377     1607  0873               	movf	___awmod@divisor+1,w
  7378     1608  1C03               	skipc
  7379     1609  03F5               	decf	___awmod@dividend+1,f
  7380     160A  02F5               	subwf	___awmod@dividend+1,f
  7381     160B                     l4073:
  7382     160B  3001               	movlw	1
  7383     160C                     u3855:
  7384     160C  1003               	clrc
  7385     160D  0CF3               	rrf	___awmod@divisor+1,f
  7386     160E  0CF2               	rrf	___awmod@divisor,f
  7387     160F  3EFF               	addlw	-1
  7388     1610  1D03               	skipz
  7389     1611  2E0C               	goto	u3855
  7390     1612                     l4075:
  7391     1612  3001               	movlw	1
  7392     1613  02F6               	subwf	___awmod@counter,f
  7393     1614  1D03               	btfss	3,2
  7394     1615  2E17               	goto	u3861
  7395     1616  2E18               	goto	u3860
  7396     1617                     u3861:
  7397     1617  2DFB               	goto	l4069
  7398     1618                     u3860:
  7399     1618                     l4077:
  7400     1618  0877               	movf	___awmod@sign,w
  7401     1619  1903               	btfsc	3,2
  7402     161A  2E1C               	goto	u3871
  7403     161B  2E1D               	goto	u3870
  7404     161C                     u3871:
  7405     161C  2E22               	goto	l4081
  7406     161D                     u3870:
  7407     161D                     l4079:
  7408     161D  09F4               	comf	___awmod@dividend,f
  7409     161E  09F5               	comf	___awmod@dividend+1,f
  7410     161F  0AF4               	incf	___awmod@dividend,f
  7411     1620  1903               	skipnz
  7412     1621  0AF5               	incf	___awmod@dividend+1,f
  7413     1622                     l4081:
  7414     1622  0875               	movf	___awmod@dividend+1,w
  7415     1623  00F3               	movwf	?___awmod+1
  7416     1624  0874               	movf	___awmod@dividend,w
  7417     1625  00F2               	movwf	?___awmod
  7418     1626                     l804:
  7419     1626  0008               	return
  7420     1627                     __end_of___awmod:
  7421                           
  7422                           	psect	text27
  7423     179D                     __ptext27:	
  7424 ;; *************** function ___awdiv *****************
  7425 ;; Defined at:
  7426 ;;		line 5 in file "C:\Program Files\Microchip\xc8\v3.00\pic\sources\c99\common\awdiv.c"
  7427 ;; Parameters:    Size  Location     Type
  7428 ;;  divisor         2    2[COMMON] int 
  7429 ;;  dividend        2    4[COMMON] int 
  7430 ;; Auto vars:     Size  Location     Type
  7431 ;;  quotient        2    8[COMMON] int 
  7432 ;;  sign            1    7[COMMON] unsigned char 
  7433 ;;  counter         1    6[COMMON] unsigned char 
  7434 ;; Return value:  Size  Location     Type
  7435 ;;                  2    2[COMMON] int 
  7436 ;; Registers used:
  7437 ;;		wreg, status,2, status,0
  7438 ;; Tracked objects:
  7439 ;;		On entry : 0/0
  7440 ;;		On exit  : 0/0
  7441 ;;		Unchanged: 0/0
  7442 ;; Data sizes:     COMMON   BANK0   BANK1   BANK3   BANK2
  7443 ;;      Params:         4       0       0       0       0
  7444 ;;      Locals:         4       0       0       0       0
  7445 ;;      Temps:          0       0       0       0       0
  7446 ;;      Totals:         8       0       0       0       0
  7447 ;;Total ram usage:        8 bytes
  7448 ;; Hardware stack levels used: 1
  7449 ;; Hardware stack levels required when called: 1
  7450 ;; This function calls:
  7451 ;;		Nothing
  7452 ;; This function is called by:
  7453 ;;		_display_dashboard
  7454 ;;		_log_car_event
  7455 ;; This function uses a non-reentrant model
  7456 ;;
  7457                           
  7458     179D                     ___awdiv:	
  7459                           ;psect for function ___awdiv
  7460                           
  7461     179D                     l4003:	
  7462                           ;incstack = 0
  7463                           ; Regs used in ___awdiv: [wreg+status,2+status,0]
  7464                           
  7465     179D  01F7               	clrf	___awdiv@sign
  7466     179E                     l4005:
  7467     179E  1FF3               	btfss	___awdiv@divisor+1,7
  7468     179F  2FA1               	goto	u3691
  7469     17A0  2FA2               	goto	u3690
  7470     17A1                     u3691:
  7471     17A1  2FA9               	goto	l4011
  7472     17A2                     u3690:
  7473     17A2                     l4007:
  7474     17A2  09F2               	comf	___awdiv@divisor,f
  7475     17A3  09F3               	comf	___awdiv@divisor+1,f
  7476     17A4  0AF2               	incf	___awdiv@divisor,f
  7477     17A5  1903               	skipnz
  7478     17A6  0AF3               	incf	___awdiv@divisor+1,f
  7479     17A7                     l4009:
  7480     17A7  3001               	movlw	1
  7481     17A8  00F7               	movwf	___awdiv@sign
  7482     17A9                     l4011:
  7483     17A9  1FF5               	btfss	___awdiv@dividend+1,7
  7484     17AA  2FAC               	goto	u3701
  7485     17AB  2FAD               	goto	u3700
  7486     17AC                     u3701:
  7487     17AC  2FB4               	goto	l4017
  7488     17AD                     u3700:
  7489     17AD                     l4013:
  7490     17AD  09F4               	comf	___awdiv@dividend,f
  7491     17AE  09F5               	comf	___awdiv@dividend+1,f
  7492     17AF  0AF4               	incf	___awdiv@dividend,f
  7493     17B0  1903               	skipnz
  7494     17B1  0AF5               	incf	___awdiv@dividend+1,f
  7495     17B2                     l4015:
  7496     17B2  3001               	movlw	1
  7497     17B3  06F7               	xorwf	___awdiv@sign,f
  7498     17B4                     l4017:
  7499     17B4  01F8               	clrf	___awdiv@quotient
  7500     17B5  01F9               	clrf	___awdiv@quotient+1
  7501     17B6                     l4019:
  7502     17B6  0872               	movf	___awdiv@divisor,w
  7503     17B7  0473               	iorwf	___awdiv@divisor+1,w
  7504     17B8  1903               	btfsc	3,2
  7505     17B9  2FBB               	goto	u3711
  7506     17BA  2FBC               	goto	u3710
  7507     17BB                     u3711:
  7508     17BB  2FF1               	goto	l4039
  7509     17BC                     u3710:
  7510     17BC                     l4021:
  7511     17BC  3001               	movlw	1
  7512     17BD  00F6               	movwf	___awdiv@counter
  7513     17BE  2FC8               	goto	l4027
  7514     17BF                     l4023:
  7515     17BF  3001               	movlw	1
  7516     17C0                     u3725:
  7517     17C0  1003               	clrc
  7518     17C1  0DF2               	rlf	___awdiv@divisor,f
  7519     17C2  0DF3               	rlf	___awdiv@divisor+1,f
  7520     17C3  3EFF               	addlw	-1
  7521     17C4  1D03               	skipz
  7522     17C5  2FC0               	goto	u3725
  7523     17C6                     l4025:
  7524     17C6  3001               	movlw	1
  7525     17C7  07F6               	addwf	___awdiv@counter,f
  7526     17C8                     l4027:
  7527     17C8  1FF3               	btfss	___awdiv@divisor+1,7
  7528     17C9  2FCB               	goto	u3731
  7529     17CA  2FCC               	goto	u3730
  7530     17CB                     u3731:
  7531     17CB  2FBF               	goto	l4023
  7532     17CC                     u3730:
  7533     17CC                     l4029:
  7534     17CC  3001               	movlw	1
  7535     17CD                     u3745:
  7536     17CD  1003               	clrc
  7537     17CE  0DF8               	rlf	___awdiv@quotient,f
  7538     17CF  0DF9               	rlf	___awdiv@quotient+1,f
  7539     17D0  3EFF               	addlw	-1
  7540     17D1  1D03               	skipz
  7541     17D2  2FCD               	goto	u3745
  7542     17D3  0873               	movf	___awdiv@divisor+1,w
  7543     17D4  0275               	subwf	___awdiv@dividend+1,w
  7544     17D5  1D03               	skipz
  7545     17D6  2FD9               	goto	u3755
  7546     17D7  0872               	movf	___awdiv@divisor,w
  7547     17D8  0274               	subwf	___awdiv@dividend,w
  7548     17D9                     u3755:
  7549     17D9  1C03               	skipc
  7550     17DA  2FDC               	goto	u3751
  7551     17DB  2FDD               	goto	u3750
  7552     17DC                     u3751:
  7553     17DC  2FE4               	goto	l4035
  7554     17DD                     u3750:
  7555     17DD                     l4031:
  7556     17DD  0872               	movf	___awdiv@divisor,w
  7557     17DE  02F4               	subwf	___awdiv@dividend,f
  7558     17DF  0873               	movf	___awdiv@divisor+1,w
  7559     17E0  1C03               	skipc
  7560     17E1  03F5               	decf	___awdiv@dividend+1,f
  7561     17E2  02F5               	subwf	___awdiv@dividend+1,f
  7562     17E3                     l4033:
  7563     17E3  1478               	bsf	___awdiv@quotient,0
  7564     17E4                     l4035:
  7565     17E4  3001               	movlw	1
  7566     17E5                     u3765:
  7567     17E5  1003               	clrc
  7568     17E6  0CF3               	rrf	___awdiv@divisor+1,f
  7569     17E7  0CF2               	rrf	___awdiv@divisor,f
  7570     17E8  3EFF               	addlw	-1
  7571     17E9  1D03               	skipz
  7572     17EA  2FE5               	goto	u3765
  7573     17EB                     l4037:
  7574     17EB  3001               	movlw	1
  7575     17EC  02F6               	subwf	___awdiv@counter,f
  7576     17ED  1D03               	btfss	3,2
  7577     17EE  2FF0               	goto	u3771
  7578     17EF  2FF1               	goto	u3770
  7579     17F0                     u3771:
  7580     17F0  2FCC               	goto	l4029
  7581     17F1                     u3770:
  7582     17F1                     l4039:
  7583     17F1  0877               	movf	___awdiv@sign,w
  7584     17F2  1903               	btfsc	3,2
  7585     17F3  2FF5               	goto	u3781
  7586     17F4  2FF6               	goto	u3780
  7587     17F5                     u3781:
  7588     17F5  2FFB               	goto	l4043
  7589     17F6                     u3780:
  7590     17F6                     l4041:
  7591     17F6  09F8               	comf	___awdiv@quotient,f
  7592     17F7  09F9               	comf	___awdiv@quotient+1,f
  7593     17F8  0AF8               	incf	___awdiv@quotient,f
  7594     17F9  1903               	skipnz
  7595     17FA  0AF9               	incf	___awdiv@quotient+1,f
  7596     17FB                     l4043:
  7597     17FB  0879               	movf	___awdiv@quotient+1,w
  7598     17FC  00F3               	movwf	?___awdiv+1
  7599     17FD  0878               	movf	___awdiv@quotient,w
  7600     17FE  00F2               	movwf	?___awdiv
  7601     17FF                     l791:
  7602     17FF  0008               	return
  7603     1800                     __end_of___awdiv:
  7604                           
  7605                           	psect	text28
  7606     12D9                     __ptext28:	
  7607 ;; *************** function _clear_log *****************
  7608 ;; Defined at:
  7609 ;;		line 339 in file "car_black_box.c"
  7610 ;; Parameters:    Size  Location     Type
  7611 ;;  reset_memory    1    wreg     unsigned char 
  7612 ;; Auto vars:     Size  Location     Type
  7613 ;;  reset_memory    1    9[COMMON] unsigned char 
  7614 ;; Return value:  Size  Location     Type
  7615 ;;                  1    wreg      unsigned char 
  7616 ;; Registers used:
  7617 ;;		wreg, fsr0l, fsr0h, status,2, status,0, btemp+1, pclath, cstack
  7618 ;; Tracked objects:
  7619 ;;		On entry : 0/0
  7620 ;;		On exit  : 0/0
  7621 ;;		Unchanged: 0/0
  7622 ;; Data sizes:     COMMON   BANK0   BANK1   BANK3   BANK2
  7623 ;;      Params:         0       0       0       0       0
  7624 ;;      Locals:         1       0       0       0       0
  7625 ;;      Temps:          0       0       0       0       0
  7626 ;;      Totals:         1       0       0       0       0
  7627 ;;Total ram usage:        1 bytes
  7628 ;; Hardware stack levels used: 1
  7629 ;; Hardware stack levels required when called: 3
  7630 ;; This function calls:
  7631 ;;		_clcd_print
  7632 ;; This function is called by:
  7633 ;;		_main
  7634 ;; This function uses a non-reentrant model
  7635 ;;
  7636                           
  7637     12D9                     _clear_log:	
  7638                           ;psect for function _clear_log
  7639                           
  7640                           
  7641                           ;incstack = 0
  7642                           ; Regs used in _clear_log: [wreg-fsr0h+status,2+status,0+btemp+1+pclath+cstack]
  7643                           ;clear_log@reset_memory stored from wreg
  7644     12D9  00F9               	movwf	clear_log@reset_memory
  7645     12DA                     l4369:
  7646                           
  7647                           ;car_black_box.c: 339: char clear_log(char reset_memory);car_black_box.c: 340: {;car_bla
      +                          ck_box.c: 341:     clcd_print("Logs cleared", (0x80 + 2));
  7648     12DA  3067               	movlw	low (STR_18| (0+32768))
  7649     12DB  00F6               	movwf	clcd_print@str
  7650     12DC  3088               	movlw	high (STR_18| (0+32768))
  7651     12DD  00F7               	movwf	clcd_print@str+1
  7652     12DE  3082               	movlw	130
  7653     12DF  00F8               	movwf	clcd_print@addr
  7654     12E0  160A  118A  232F  160A  118A  	fcall	_clcd_print
  7655                           
  7656                           ;car_black_box.c: 342:     clcd_print("successfully", (0xC0 + 2));
  7657     12E5  308E               	movlw	low (STR_19| (0+32768))
  7658     12E6  00F6               	movwf	clcd_print@str
  7659     12E7  3088               	movlw	high (STR_19| (0+32768))
  7660     12E8  00F7               	movwf	clcd_print@str+1
  7661     12E9  30C2               	movlw	194
  7662     12EA  00F8               	movwf	clcd_print@addr
  7663     12EB  160A  118A  232F  160A  118A  	fcall	_clcd_print
  7664     12F0                     l4371:
  7665                           
  7666                           ;car_black_box.c: 344:     if (reset_memory == 0x40)
  7667     12F0  3040               	movlw	64
  7668     12F1  0679               	xorwf	clear_log@reset_memory,w
  7669     12F2  1D03               	btfss	3,2
  7670     12F3  2AF5               	goto	u4281
  7671     12F4  2AF6               	goto	u4280
  7672     12F5                     u4281:
  7673     12F5  2B02               	goto	l4377
  7674     12F6                     u4280:
  7675     12F6                     l4373:
  7676                           
  7677                           ;car_black_box.c: 345:     {;car_black_box.c: 346:         pos = -1;
  7678     12F6  30FF               	movlw	255
  7679     12F7  1283               	bcf	3,5	;RP0=0, select bank0
  7680     12F8  1303               	bcf	3,6	;RP1=0, select bank0
  7681     12F9  00D9               	movwf	_pos
  7682     12FA  30FF               	movlw	255
  7683     12FB  00DA               	movwf	_pos+1
  7684                           
  7685                           ;car_black_box.c: 347:         event_count = -1;
  7686     12FC  30FF               	movlw	255
  7687     12FD  00D7               	movwf	_event_count
  7688     12FE  30FF               	movlw	255
  7689     12FF  00D8               	movwf	_event_count+1
  7690                           
  7691                           ;car_black_box.c: 349:         return 0x0C;
  7692     1300  300C               	movlw	12
  7693     1301  2B03               	goto	l135
  7694     1302                     l4377:
  7695                           
  7696                           ;car_black_box.c: 351:     return 0x0D;
  7697     1302  300D               	movlw	13
  7698     1303                     l135:
  7699     1303  0008               	return
  7700     1304                     __end_of_clear_log:
  7701                           
  7702                           	psect	text29
  7703     03A8                     __ptext29:	
  7704 ;; *************** function _change_time *****************
  7705 ;; Defined at:
  7706 ;;		line 525 in file "car_black_box.c"
  7707 ;; Parameters:    Size  Location     Type
  7708 ;;  key             1    wreg     unsigned char 
  7709 ;;  reset_time      1    5[BANK0 ] unsigned char 
  7710 ;; Auto vars:     Size  Location     Type
  7711 ;;  key             1    9[BANK0 ] unsigned char 
  7712 ;;  buffer          1   10[BANK0 ] unsigned char 
  7713 ;; Return value:  Size  Location     Type
  7714 ;;                  1    wreg      unsigned char 
  7715 ;; Registers used:
  7716 ;;		wreg, fsr0l, fsr0h, status,2, status,0, btemp+1, pclath, cstack
  7717 ;; Tracked objects:
  7718 ;;		On entry : 0/0
  7719 ;;		On exit  : 0/0
  7720 ;;		Unchanged: 0/0
  7721 ;; Data sizes:     COMMON   BANK0   BANK1   BANK3   BANK2
  7722 ;;      Params:         0       1       0       0       0
  7723 ;;      Locals:         0       2       0       0       0
  7724 ;;      Temps:          0       3       0       0       0
  7725 ;;      Totals:         0       6       0       0       0
  7726 ;;Total ram usage:        6 bytes
  7727 ;; Hardware stack levels used: 1
  7728 ;; Hardware stack levels required when called: 6
  7729 ;; This function calls:
  7730 ;;		___lwdiv
  7731 ;;		___lwmod
  7732 ;;		___wmul
  7733 ;;		_clcd_print
  7734 ;;		_clcd_putch
  7735 ;;		_clear_screen
  7736 ;;		_get_time
  7737 ;;		_write_ds1307
  7738 ;; This function is called by:
  7739 ;;		_main
  7740 ;; This function uses a non-reentrant model
  7741 ;;
  7742                           
  7743     03A8                     _change_time:	
  7744                           ;psect for function _change_time
  7745                           
  7746                           
  7747                           ;incstack = 0
  7748                           ; Regs used in _change_time: [wreg-fsr0h+status,2+status,0+btemp+1+pclath+cstack]
  7749                           ;change_time@key stored from wreg
  7750     03A8  1283               	bcf	3,5	;RP0=0, select bank0
  7751     03A9  1303               	bcf	3,6	;RP1=0, select bank0
  7752     03AA  00A9               	movwf	change_time@key
  7753     03AB                     l4571:
  7754                           
  7755                           ;car_black_box.c: 525: char change_time(unsigned char key, unsigned char reset_time);car
      +                          _black_box.c: 526: {;car_black_box.c: 527:     static unsigned int new_time[3];;car_blac
      +                          k_box.c: 528:     static unsigned int blink_pos;;car_black_box.c: 529:     static unsign
      +                          ed char wait;;car_black_box.c: 530:     static unsigned char blink;;car_black_box.c: 531
      +                          :     static char t_done = 0;;car_black_box.c: 532:     char buffer;;car_black_box.c: 53
      +                          4:     if (reset_time == 0x30)
  7756     03AB  3030               	movlw	48
  7757     03AC  0625               	xorwf	change_time@reset_time,w
  7758     03AD  1D03               	btfss	3,2
  7759     03AE  2BB0               	goto	u4471
  7760     03AF  2BB1               	goto	u4470
  7761     03B0                     u4471:
  7762     03B0  2C3E               	goto	l4587
  7763     03B1                     u4470:
  7764     03B1                     l4573:
  7765                           
  7766                           ;car_black_box.c: 535:     {;car_black_box.c: 536:         get_time();
  7767     03B1  160A  118A  273A  120A  118A  	fcall	_get_time
  7768                           
  7769                           ;car_black_box.c: 539:         new_time[0] = (time[0] & 0x0F) * 10 + (time[1] & 0x0F);
  7770     03B6  300F               	movlw	15
  7771     03B7  1683               	bsf	3,5	;RP0=1, select bank1
  7772     03B8  1303               	bcf	3,6	;RP1=0, select bank1
  7773     03B9  0539               	andwf	(_time^(0+128)+1),w
  7774     03BA  1283               	bcf	3,5	;RP0=0, select bank0
  7775     03BB  1303               	bcf	3,6	;RP1=0, select bank0
  7776     03BC  00A6               	movwf	??_change_time
  7777     03BD  1683               	bsf	3,5	;RP0=1, select bank1
  7778     03BE  1303               	bcf	3,6	;RP1=0, select bank1
  7779     03BF  0838               	movf	_time^(0+128),w
  7780     03C0  390F               	andlw	15
  7781     03C1  1283               	bcf	3,5	;RP0=0, select bank0
  7782     03C2  1303               	bcf	3,6	;RP1=0, select bank0
  7783     03C3  00A7               	movwf	??_change_time+1
  7784     03C4  01A8               	clrf	??_change_time+2
  7785     03C5  0827               	movf	??_change_time+1,w
  7786     03C6  00F2               	movwf	___wmul@multiplier
  7787     03C7  0828               	movf	??_change_time+2,w
  7788     03C8  00F3               	movwf	___wmul@multiplier+1
  7789     03C9  300A               	movlw	10
  7790     03CA  00F4               	movwf	___wmul@multiplicand
  7791     03CB  3000               	movlw	0
  7792     03CC  00F5               	movwf	___wmul@multiplicand+1
  7793     03CD  160A  118A  2211  120A  118A  	fcall	___wmul
  7794     03D2  1283               	bcf	3,5	;RP0=0, select bank0
  7795     03D3  1303               	bcf	3,6	;RP1=0, select bank0
  7796     03D4  0826               	movf	??_change_time,w
  7797     03D5  0772               	addwf	?___wmul,w
  7798     03D6  00BD               	movwf	change_time@new_time
  7799     03D7  3000               	movlw	0
  7800     03D8  1803               	skipnc
  7801     03D9  3001               	movlw	1
  7802     03DA  0773               	addwf	?___wmul+1,w
  7803     03DB  00BE               	movwf	change_time@new_time+1
  7804                           
  7805                           ;car_black_box.c: 542:         new_time[1] = (time[2] & 0x0F) * 10 + (time[3] & 0x0F);
  7806     03DC  300F               	movlw	15
  7807     03DD  1683               	bsf	3,5	;RP0=1, select bank1
  7808     03DE  1303               	bcf	3,6	;RP1=0, select bank1
  7809     03DF  053B               	andwf	(_time^(0+128)+3),w
  7810     03E0  1283               	bcf	3,5	;RP0=0, select bank0
  7811     03E1  1303               	bcf	3,6	;RP1=0, select bank0
  7812     03E2  00A6               	movwf	??_change_time
  7813     03E3  1683               	bsf	3,5	;RP0=1, select bank1
  7814     03E4  1303               	bcf	3,6	;RP1=0, select bank1
  7815     03E5  083A               	movf	(_time^(0+128)+2),w
  7816     03E6  390F               	andlw	15
  7817     03E7  1283               	bcf	3,5	;RP0=0, select bank0
  7818     03E8  1303               	bcf	3,6	;RP1=0, select bank0
  7819     03E9  00A7               	movwf	??_change_time+1
  7820     03EA  01A8               	clrf	??_change_time+2
  7821     03EB  0827               	movf	??_change_time+1,w
  7822     03EC  00F2               	movwf	___wmul@multiplier
  7823     03ED  0828               	movf	??_change_time+2,w
  7824     03EE  00F3               	movwf	___wmul@multiplier+1
  7825     03EF  300A               	movlw	10
  7826     03F0  00F4               	movwf	___wmul@multiplicand
  7827     03F1  3000               	movlw	0
  7828     03F2  00F5               	movwf	___wmul@multiplicand+1
  7829     03F3  160A  118A  2211  120A  118A  	fcall	___wmul
  7830     03F8  1283               	bcf	3,5	;RP0=0, select bank0
  7831     03F9  1303               	bcf	3,6	;RP1=0, select bank0
  7832     03FA  0826               	movf	??_change_time,w
  7833     03FB  0772               	addwf	?___wmul,w
  7834     03FC  00BF               	movwf	change_time@new_time+2
  7835     03FD  3000               	movlw	0
  7836     03FE  1803               	skipnc
  7837     03FF  3001               	movlw	1
  7838     0400  0773               	addwf	?___wmul+1,w
  7839     0401  00C0               	movwf	change_time@new_time+3
  7840                           
  7841                           ;car_black_box.c: 545:         new_time[2] = (time[4] & 0x0F) * 10 + (time[5] & 0x0F);
  7842     0402  300F               	movlw	15
  7843     0403  1683               	bsf	3,5	;RP0=1, select bank1
  7844     0404  1303               	bcf	3,6	;RP1=0, select bank1
  7845     0405  053D               	andwf	(_time^(0+128)+5),w
  7846     0406  1283               	bcf	3,5	;RP0=0, select bank0
  7847     0407  1303               	bcf	3,6	;RP1=0, select bank0
  7848     0408  00A6               	movwf	??_change_time
  7849     0409  1683               	bsf	3,5	;RP0=1, select bank1
  7850     040A  1303               	bcf	3,6	;RP1=0, select bank1
  7851     040B  083C               	movf	(_time^(0+128)+4),w
  7852     040C  390F               	andlw	15
  7853     040D  1283               	bcf	3,5	;RP0=0, select bank0
  7854     040E  1303               	bcf	3,6	;RP1=0, select bank0
  7855     040F  00A7               	movwf	??_change_time+1
  7856     0410  01A8               	clrf	??_change_time+2
  7857     0411  0827               	movf	??_change_time+1,w
  7858     0412  00F2               	movwf	___wmul@multiplier
  7859     0413  0828               	movf	??_change_time+2,w
  7860     0414  00F3               	movwf	___wmul@multiplier+1
  7861     0415  300A               	movlw	10
  7862     0416  00F4               	movwf	___wmul@multiplicand
  7863     0417  3000               	movlw	0
  7864     0418  00F5               	movwf	___wmul@multiplicand+1
  7865     0419  160A  118A  2211  120A  118A  	fcall	___wmul
  7866     041E  1283               	bcf	3,5	;RP0=0, select bank0
  7867     041F  1303               	bcf	3,6	;RP1=0, select bank0
  7868     0420  0826               	movf	??_change_time,w
  7869     0421  0772               	addwf	?___wmul,w
  7870     0422  00C1               	movwf	change_time@new_time+4
  7871     0423  3000               	movlw	0
  7872     0424  1803               	skipnc
  7873     0425  3001               	movlw	1
  7874     0426  0773               	addwf	?___wmul+1,w
  7875     0427  00C2               	movwf	change_time@new_time+5
  7876     0428                     l4575:
  7877                           
  7878                           ;car_black_box.c: 547:         clcd_print("Time (HH:MM:SS)", (0x80 + 0));
  7879     0428  3001               	movlw	low (STR_35| (0+32768))
  7880     0429  00F6               	movwf	clcd_print@str
  7881     042A  3088               	movlw	high (STR_35| (0+32768))
  7882     042B  00F7               	movwf	clcd_print@str+1
  7883     042C  3080               	movlw	128
  7884     042D  00F8               	movwf	clcd_print@addr
  7885     042E  160A  118A  232F  120A  118A  	fcall	_clcd_print
  7886     0433                     l4577:
  7887                           
  7888                           ;car_black_box.c: 549:         blink_pos = 2;
  7889     0433  3002               	movlw	2
  7890     0434  1283               	bcf	3,5	;RP0=0, select bank0
  7891     0435  1303               	bcf	3,6	;RP1=0, select bank0
  7892     0436  00C8               	movwf	change_time@blink_pos
  7893     0437  3000               	movlw	0
  7894     0438  00C9               	movwf	change_time@blink_pos+1
  7895     0439                     l4579:
  7896                           
  7897                           ;car_black_box.c: 550:         wait = 0;
  7898     0439  01D3               	clrf	change_time@wait
  7899     043A                     l4581:
  7900                           
  7901                           ;car_black_box.c: 551:         blink = 0;
  7902     043A  01D2               	clrf	change_time@blink
  7903     043B                     l4583:
  7904                           
  7905                           ;car_black_box.c: 552:         t_done = 0;
  7906     043B  01D1               	clrf	change_time@t_done
  7907     043C                     l4585:
  7908                           
  7909                           ;car_black_box.c: 553:         key = 0x3F;
  7910     043C  303F               	movlw	63
  7911     043D  00A9               	movwf	change_time@key
  7912     043E                     l4587:
  7913                           
  7914                           ;car_black_box.c: 556:     if (t_done)
  7915     043E  0851               	movf	change_time@t_done,w
  7916     043F  1903               	btfsc	3,2
  7917     0440  2C42               	goto	u4481
  7918     0441  2C43               	goto	u4480
  7919     0442                     u4481:
  7920     0442  2D52               	goto	l4627
  7921     0443                     u4480:
  7922     0443                     l4589:
  7923                           
  7924                           ;car_black_box.c: 557:         return 0x0D;
  7925     0443  300D               	movlw	13
  7926     0444  2E7D               	goto	l193
  7927     0445                     l4593:
  7928                           
  7929                           ;car_black_box.c: 562:             new_time[blink_pos]++;
  7930     0445  0848               	movf	change_time@blink_pos,w
  7931     0446  00A6               	movwf	??_change_time
  7932     0447  0726               	addwf	??_change_time,w
  7933     0448  3E3D               	addlw	(low (change_time@new_time| 0))& (0+255)
  7934     0449  0084               	movwf	4
  7935     044A  3001               	movlw	1
  7936     044B  1383               	bcf	3,7	;select IRP bank0
  7937     044C  0780               	addwf	0,f
  7938     044D  0A84               	incf	4,f
  7939     044E  1803               	skipnc
  7940     044F  0A80               	incf	0,f
  7941                           
  7942                           ;car_black_box.c: 563:             break;
  7943     0450  2D5D               	goto	l4629
  7944     0451                     l4595:
  7945                           
  7946                           ;car_black_box.c: 566:             blink_pos = (blink_pos + 1) % 3;
  7947     0451  3003               	movlw	3
  7948     0452  00F2               	movwf	___lwmod@divisor
  7949     0453  3000               	movlw	0
  7950     0454  00F3               	movwf	___lwmod@divisor+1
  7951     0455  0848               	movf	change_time@blink_pos,w
  7952     0456  3E01               	addlw	1
  7953     0457  00F4               	movwf	___lwmod@dividend
  7954     0458  0849               	movf	change_time@blink_pos+1,w
  7955     0459  1803               	skipnc
  7956     045A  3E01               	addlw	1
  7957     045B  3E00               	addlw	0
  7958     045C  00F5               	movwf	___lwmod@dividend+1
  7959     045D  160A  118A  23F8  120A  118A  	fcall	___lwmod
  7960     0462  0873               	movf	?___lwmod+1,w
  7961     0463  1283               	bcf	3,5	;RP0=0, select bank0
  7962     0464  1303               	bcf	3,6	;RP1=0, select bank0
  7963     0465  00C9               	movwf	change_time@blink_pos+1
  7964     0466  0872               	movf	?___lwmod,w
  7965     0467  00C8               	movwf	change_time@blink_pos
  7966                           
  7967                           ;car_black_box.c: 567:             break;
  7968     0468  2D5D               	goto	l4629
  7969     0469                     l4597:
  7970                           
  7971                           ;car_black_box.c: 571:             get_time();
  7972     0469  160A  118A  273A  120A  118A  	fcall	_get_time
  7973                           
  7974                           ;car_black_box.c: 573:             buffer = ((new_time[0] / 10) << 4) | new_time[0] % 10
      +                          ;
  7975     046E  300A               	movlw	10
  7976     046F  00F2               	movwf	___lwmod@divisor
  7977     0470  3000               	movlw	0
  7978     0471  00F3               	movwf	___lwmod@divisor+1
  7979     0472  1283               	bcf	3,5	;RP0=0, select bank0
  7980     0473  1303               	bcf	3,6	;RP1=0, select bank0
  7981     0474  083E               	movf	change_time@new_time+1,w
  7982     0475  00F5               	movwf	___lwmod@dividend+1
  7983     0476  083D               	movf	change_time@new_time,w
  7984     0477  00F4               	movwf	___lwmod@dividend
  7985     0478  160A  118A  23F8  120A  118A  	fcall	___lwmod
  7986     047D  0872               	movf	?___lwmod,w
  7987     047E  1283               	bcf	3,5	;RP0=0, select bank0
  7988     047F  1303               	bcf	3,6	;RP1=0, select bank0
  7989     0480  00A6               	movwf	??_change_time
  7990     0481  0873               	movf	?___lwmod+1,w
  7991     0482  00A7               	movwf	??_change_time+1
  7992     0483  300A               	movlw	10
  7993     0484  00F6               	movwf	___lwdiv@divisor
  7994     0485  3000               	movlw	0
  7995     0486  00F7               	movwf	___lwdiv@divisor+1
  7996     0487  083E               	movf	change_time@new_time+1,w
  7997     0488  00F9               	movwf	___lwdiv@dividend+1
  7998     0489  083D               	movf	change_time@new_time,w
  7999     048A  00F8               	movwf	___lwdiv@dividend
  8000     048B  160A  118A  24ED  120A  118A  	fcall	___lwdiv
  8001     0490  0876               	movf	?___lwdiv,w
  8002     0491  1283               	bcf	3,5	;RP0=0, select bank0
  8003     0492  1303               	bcf	3,6	;RP1=0, select bank0
  8004     0493  00A8               	movwf	??_change_time+2
  8005     0494  3003               	movlw	3
  8006     0495                     u4495:
  8007     0495  1003               	clrc
  8008     0496  0DA8               	rlf	??_change_time+2,f
  8009     0497  3EFF               	addlw	-1
  8010     0498  1D03               	skipz
  8011     0499  2C95               	goto	u4495
  8012     049A  1003               	clrc
  8013     049B  0D28               	rlf	??_change_time+2,w
  8014     049C  0426               	iorwf	??_change_time,w
  8015     049D  00AA               	movwf	change_time@buffer
  8016     049E                     l4599:
  8017                           
  8018                           ;car_black_box.c: 574:             clock_reg[0] = (clock_reg[0] & 0xC0) | buffer;
  8019     049E  0843               	movf	_clock_reg,w
  8020     049F  39C0               	andlw	192
  8021     04A0  042A               	iorwf	change_time@buffer,w
  8022     04A1  00C3               	movwf	_clock_reg
  8023     04A2                     l4601:
  8024                           
  8025                           ;car_black_box.c: 575:             write_ds1307(0x02, clock_reg[0]);
  8026     04A2  0843               	movf	_clock_reg,w
  8027     04A3  00F3               	movwf	write_ds1307@data
  8028     04A4  3002               	movlw	2
  8029     04A5  160A  118A  2191  120A  118A  	fcall	_write_ds1307
  8030     04AA                     l4603:
  8031                           
  8032                           ;car_black_box.c: 577:             buffer = ((new_time[1] / 10) << 4) | new_time[1] % 10
      +                          ;
  8033     04AA  300A               	movlw	10
  8034     04AB  00F2               	movwf	___lwmod@divisor
  8035     04AC  3000               	movlw	0
  8036     04AD  00F3               	movwf	___lwmod@divisor+1
  8037     04AE  1283               	bcf	3,5	;RP0=0, select bank0
  8038     04AF  1303               	bcf	3,6	;RP1=0, select bank0
  8039     04B0  0840               	movf	change_time@new_time+3,w
  8040     04B1  00F5               	movwf	___lwmod@dividend+1
  8041     04B2  083F               	movf	change_time@new_time+2,w
  8042     04B3  00F4               	movwf	___lwmod@dividend
  8043     04B4  160A  118A  23F8  120A  118A  	fcall	___lwmod
  8044     04B9  0872               	movf	?___lwmod,w
  8045     04BA  1283               	bcf	3,5	;RP0=0, select bank0
  8046     04BB  1303               	bcf	3,6	;RP1=0, select bank0
  8047     04BC  00A6               	movwf	??_change_time
  8048     04BD  0873               	movf	?___lwmod+1,w
  8049     04BE  00A7               	movwf	??_change_time+1
  8050     04BF  300A               	movlw	10
  8051     04C0  00F6               	movwf	___lwdiv@divisor
  8052     04C1  3000               	movlw	0
  8053     04C2  00F7               	movwf	___lwdiv@divisor+1
  8054     04C3  0840               	movf	change_time@new_time+3,w
  8055     04C4  00F9               	movwf	___lwdiv@dividend+1
  8056     04C5  083F               	movf	change_time@new_time+2,w
  8057     04C6  00F8               	movwf	___lwdiv@dividend
  8058     04C7  160A  118A  24ED  120A  118A  	fcall	___lwdiv
  8059     04CC  0876               	movf	?___lwdiv,w
  8060     04CD  1283               	bcf	3,5	;RP0=0, select bank0
  8061     04CE  1303               	bcf	3,6	;RP1=0, select bank0
  8062     04CF  00A8               	movwf	??_change_time+2
  8063     04D0  3003               	movlw	3
  8064     04D1                     u4505:
  8065     04D1  1003               	clrc
  8066     04D2  0DA8               	rlf	??_change_time+2,f
  8067     04D3  3EFF               	addlw	-1
  8068     04D4  1D03               	skipz
  8069     04D5  2CD1               	goto	u4505
  8070     04D6  1003               	clrc
  8071     04D7  0D28               	rlf	??_change_time+2,w
  8072     04D8  0426               	iorwf	??_change_time,w
  8073     04D9  00AA               	movwf	change_time@buffer
  8074     04DA                     l4605:
  8075                           
  8076                           ;car_black_box.c: 578:             clock_reg[1] = (clock_reg[1] & 0x80) | buffer;
  8077     04DA  0844               	movf	_clock_reg+1,w
  8078     04DB  3980               	andlw	128
  8079     04DC  042A               	iorwf	change_time@buffer,w
  8080     04DD  00C4               	movwf	_clock_reg+1
  8081                           
  8082                           ;car_black_box.c: 579:             write_ds1307(0x01, clock_reg[1]);
  8083     04DE  0844               	movf	_clock_reg+1,w
  8084     04DF  00F3               	movwf	write_ds1307@data
  8085     04E0  3001               	movlw	1
  8086     04E1  160A  118A  2191  120A  118A  	fcall	_write_ds1307
  8087                           
  8088                           ;car_black_box.c: 581:             buffer = ((new_time[2] / 10) << 4) | new_time[2] % 10
      +                          ;
  8089     04E6  300A               	movlw	10
  8090     04E7  00F2               	movwf	___lwmod@divisor
  8091     04E8  3000               	movlw	0
  8092     04E9  00F3               	movwf	___lwmod@divisor+1
  8093     04EA  1283               	bcf	3,5	;RP0=0, select bank0
  8094     04EB  1303               	bcf	3,6	;RP1=0, select bank0
  8095     04EC  0842               	movf	change_time@new_time+5,w
  8096     04ED  00F5               	movwf	___lwmod@dividend+1
  8097     04EE  0841               	movf	change_time@new_time+4,w
  8098     04EF  00F4               	movwf	___lwmod@dividend
  8099     04F0  160A  118A  23F8  120A  118A  	fcall	___lwmod
  8100     04F5  0872               	movf	?___lwmod,w
  8101     04F6  1283               	bcf	3,5	;RP0=0, select bank0
  8102     04F7  1303               	bcf	3,6	;RP1=0, select bank0
  8103     04F8  00A6               	movwf	??_change_time
  8104     04F9  0873               	movf	?___lwmod+1,w
  8105     04FA  00A7               	movwf	??_change_time+1
  8106     04FB  300A               	movlw	10
  8107     04FC  00F6               	movwf	___lwdiv@divisor
  8108     04FD  3000               	movlw	0
  8109     04FE  00F7               	movwf	___lwdiv@divisor+1
  8110     04FF  0842               	movf	change_time@new_time+5,w
  8111     0500  00F9               	movwf	___lwdiv@dividend+1
  8112     0501  0841               	movf	change_time@new_time+4,w
  8113     0502  00F8               	movwf	___lwdiv@dividend
  8114     0503  160A  118A  24ED  120A  118A  	fcall	___lwdiv
  8115     0508  0876               	movf	?___lwdiv,w
  8116     0509  1283               	bcf	3,5	;RP0=0, select bank0
  8117     050A  1303               	bcf	3,6	;RP1=0, select bank0
  8118     050B  00A8               	movwf	??_change_time+2
  8119     050C  3003               	movlw	3
  8120     050D                     u4515:
  8121     050D  1003               	clrc
  8122     050E  0DA8               	rlf	??_change_time+2,f
  8123     050F  3EFF               	addlw	-1
  8124     0510  1D03               	skipz
  8125     0511  2D0D               	goto	u4515
  8126     0512  1003               	clrc
  8127     0513  0D28               	rlf	??_change_time+2,w
  8128     0514  0426               	iorwf	??_change_time,w
  8129     0515  00AA               	movwf	change_time@buffer
  8130     0516                     l4607:
  8131                           
  8132                           ;car_black_box.c: 582:             clock_reg[2] = (clock_reg[2] & 0x80) | buffer;
  8133     0516  0845               	movf	_clock_reg+2,w
  8134     0517  3980               	andlw	128
  8135     0518  042A               	iorwf	change_time@buffer,w
  8136     0519  00C5               	movwf	_clock_reg+2
  8137     051A                     l4609:
  8138                           
  8139                           ;car_black_box.c: 583:             write_ds1307(0x00, clock_reg[2]);
  8140     051A  0845               	movf	_clock_reg+2,w
  8141     051B  00F3               	movwf	write_ds1307@data
  8142     051C  3000               	movlw	0
  8143     051D  160A  118A  2191  120A  118A  	fcall	_write_ds1307
  8144     0522                     l4611:
  8145                           
  8146                           ;car_black_box.c: 585:             clear_screen();
  8147     0522  160A  118A  2134  120A  118A  	fcall	_clear_screen
  8148     0527                     l4613:
  8149                           
  8150                           ;car_black_box.c: 587:             clcd_print("Time changed", (0x80 + 2));
  8151     0527  305A               	movlw	low (STR_36| (0+32768))
  8152     0528  00F6               	movwf	clcd_print@str
  8153     0529  3088               	movlw	high (STR_36| (0+32768))
  8154     052A  00F7               	movwf	clcd_print@str+1
  8155     052B  3082               	movlw	130
  8156     052C  00F8               	movwf	clcd_print@addr
  8157     052D  160A  118A  232F  120A  118A  	fcall	_clcd_print
  8158     0532                     l4615:
  8159                           
  8160                           ;car_black_box.c: 588:             clcd_print("Successfully", (0xC0 + 2));
  8161     0532  3081               	movlw	low (STR_37| (0+32768))
  8162     0533  00F6               	movwf	clcd_print@str
  8163     0534  3088               	movlw	high (STR_37| (0+32768))
  8164     0535  00F7               	movwf	clcd_print@str+1
  8165     0536  30C2               	movlw	194
  8166     0537  00F8               	movwf	clcd_print@addr
  8167     0538  160A  118A  232F  120A  118A  	fcall	_clcd_print
  8168     053D                     l4617:
  8169                           
  8170                           ;car_black_box.c: 590:             t_done = 1;
  8171     053D  3001               	movlw	1
  8172     053E  1283               	bcf	3,5	;RP0=0, select bank0
  8173     053F  1303               	bcf	3,6	;RP1=0, select bank0
  8174     0540  00D1               	movwf	change_time@t_done
  8175     0541                     l4619:
  8176                           
  8177                           ;car_black_box.c: 591:             _delay((unsigned long)((1000)*(20000000/4000.0)));
  8178     0541  301A               	movlw	26
  8179     0542  1283               	bcf	3,5	;RP0=0, select bank0
  8180     0543  1303               	bcf	3,6	;RP1=0, select bank0
  8181     0544  00A8               	movwf	??_change_time+2
  8182     0545  305E               	movlw	94
  8183     0546  00A7               	movwf	??_change_time+1
  8184     0547  306D               	movlw	109
  8185     0548  00A6               	movwf	??_change_time
  8186     0549                     u5137:
  8187     0549  0BA6               	decfsz	??_change_time,f
  8188     054A  2D49               	goto	u5137
  8189     054B  0BA7               	decfsz	??_change_time+1,f
  8190     054C  2D49               	goto	u5137
  8191     054D  0BA8               	decfsz	??_change_time+2,f
  8192     054E  2D49               	goto	u5137
  8193     054F  2D50               	nop2
  8194     0550                     l4621:
  8195                           
  8196                           ;car_black_box.c: 592:             return 0x0C;
  8197     0550  300C               	movlw	12
  8198     0551  2E7D               	goto	l193
  8199     0552                     l4627:
  8200     0552  0829               	movf	change_time@key,w
  8201                           
  8202                           ; Switch size 1, requested type "simple"
  8203                           ; Number of cases is 3, Range of values is 47 to 128
  8204                           ; switch strategies available:
  8205                           ; Name         Instructions Cycles
  8206                           ; simple_byte           10     6 (average)
  8207                           ; direct_byte          257    11 (fixed)
  8208                           ; jumptable            263     9 (fixed)
  8209                           ;	Chosen strategy is simple_byte
  8210     0553  3A2F               	xorlw	47	; case 47
  8211     0554  1903               	skipnz
  8212     0555  2C51               	goto	l4595
  8213     0556  3A18               	xorlw	24	; case 55
  8214     0557  1903               	skipnz
  8215     0558  2C45               	goto	l4593
  8216     0559  3AB7               	xorlw	183	; case 128
  8217     055A  1903               	skipnz
  8218     055B  2C69               	goto	l4597
  8219     055C  2D5D               	goto	l4629
  8220     055D                     l4629:
  8221                           
  8222                           ;car_black_box.c: 595:     if (new_time[0] > 23)
  8223     055D  3000               	movlw	0
  8224     055E  023E               	subwf	change_time@new_time+1,w
  8225     055F  3018               	movlw	24
  8226     0560  1903               	skipnz
  8227     0561  023D               	subwf	change_time@new_time,w
  8228     0562  1C03               	skipc
  8229     0563  2D65               	goto	u4521
  8230     0564  2D66               	goto	u4520
  8231     0565                     u4521:
  8232     0565  2D68               	goto	l4633
  8233     0566                     u4520:
  8234     0566                     l4631:
  8235                           
  8236                           ;car_black_box.c: 596:         new_time[0] = 0;
  8237     0566  01BD               	clrf	change_time@new_time
  8238     0567  01BE               	clrf	change_time@new_time+1
  8239     0568                     l4633:
  8240                           
  8241                           ;car_black_box.c: 597:     if (new_time[1] > 59)
  8242     0568  3000               	movlw	0
  8243     0569  0240               	subwf	change_time@new_time+3,w
  8244     056A  303C               	movlw	60
  8245     056B  1903               	skipnz
  8246     056C  023F               	subwf	change_time@new_time+2,w
  8247     056D  1C03               	skipc
  8248     056E  2D70               	goto	u4531
  8249     056F  2D71               	goto	u4530
  8250     0570                     u4531:
  8251     0570  2D73               	goto	l4637
  8252     0571                     u4530:
  8253     0571                     l4635:
  8254                           
  8255                           ;car_black_box.c: 598:         new_time[1] = 0;
  8256     0571  01BF               	clrf	change_time@new_time+2
  8257     0572  01C0               	clrf	change_time@new_time+3
  8258     0573                     l4637:
  8259                           
  8260                           ;car_black_box.c: 599:     if (new_time[2] > 59)
  8261     0573  3000               	movlw	0
  8262     0574  0242               	subwf	change_time@new_time+5,w
  8263     0575  303C               	movlw	60
  8264     0576  1903               	skipnz
  8265     0577  0241               	subwf	change_time@new_time+4,w
  8266     0578  1C03               	skipc
  8267     0579  2D7B               	goto	u4541
  8268     057A  2D7C               	goto	u4540
  8269     057B                     u4541:
  8270     057B  2D7E               	goto	l4641
  8271     057C                     u4540:
  8272     057C                     l4639:
  8273                           
  8274                           ;car_black_box.c: 600:         new_time[2] = 0;
  8275     057C  01C1               	clrf	change_time@new_time+4
  8276     057D  01C2               	clrf	change_time@new_time+5
  8277     057E                     l4641:
  8278                           
  8279                           ;car_black_box.c: 602:     if (wait++ == 1)
  8280     057E  3001               	movlw	1
  8281     057F  07D3               	addwf	change_time@wait,f
  8282     0580  3002               	movlw	2
  8283     0581  0653               	xorwf	change_time@wait,w
  8284     0582  1D03               	btfss	3,2
  8285     0583  2D85               	goto	u4551
  8286     0584  2D86               	goto	u4550
  8287     0585                     u4551:
  8288     0585  2DD8               	goto	l4667
  8289     0586                     u4550:
  8290     0586                     l4643:
  8291                           
  8292                           ;car_black_box.c: 603:     {;car_black_box.c: 604:         wait = 0;
  8293     0586  01D3               	clrf	change_time@wait
  8294     0587                     l4645:
  8295                           
  8296                           ;car_black_box.c: 605:         blink = !blink;
  8297     0587  0852               	movf	change_time@blink,w
  8298     0588  1903               	btfsc	3,2
  8299     0589  2D8B               	goto	u4561
  8300     058A  2D8D               	goto	u4560
  8301     058B                     u4561:
  8302     058B  3001               	movlw	1
  8303     058C  2D8E               	goto	u4570
  8304     058D                     u4560:
  8305     058D  3000               	movlw	0
  8306     058E                     u4570:
  8307     058E  00D2               	movwf	change_time@blink
  8308     058F                     l4647:
  8309                           
  8310                           ;car_black_box.c: 607:         if (blink)
  8311     058F  0852               	movf	change_time@blink,w
  8312     0590  1903               	btfsc	3,2
  8313     0591  2D93               	goto	u4581
  8314     0592  2D94               	goto	u4580
  8315     0593                     u4581:
  8316     0593  2DD8               	goto	l4667
  8317     0594                     u4580:
  8318     0594  2DC8               	goto	l4665
  8319     0595                     l4651:
  8320                           
  8321                           ;car_black_box.c: 612:                     clcd_print("  ", (0xC0 + 0));
  8322     0595  3054               	movlw	low ((STR_29+15)| (0+32768))
  8323     0596  00F6               	movwf	clcd_print@str
  8324     0597  3087               	movlw	high ((STR_29+15)| (0+32768))
  8325     0598  00F7               	movwf	clcd_print@str+1
  8326     0599  30C0               	movlw	192
  8327     059A  00F8               	movwf	clcd_print@addr
  8328     059B  160A  118A  232F  120A  118A  	fcall	_clcd_print
  8329     05A0                     l4653:
  8330                           
  8331                           ;car_black_box.c: 613:                     _delay((unsigned long)((160)*(20000000/4000.0
      +                          )));
  8332     05A0  3005               	movlw	5
  8333     05A1  1283               	bcf	3,5	;RP0=0, select bank0
  8334     05A2  1303               	bcf	3,6	;RP1=0, select bank0
  8335     05A3  00A8               	movwf	??_change_time+2
  8336     05A4  300F               	movlw	15
  8337     05A5  00A7               	movwf	??_change_time+1
  8338     05A6  30F0               	movlw	240
  8339     05A7  00A6               	movwf	??_change_time
  8340     05A8                     u5147:
  8341     05A8  0BA6               	decfsz	??_change_time,f
  8342     05A9  2DA8               	goto	u5147
  8343     05AA  0BA7               	decfsz	??_change_time+1,f
  8344     05AB  2DA8               	goto	u5147
  8345     05AC  0BA8               	decfsz	??_change_time+2,f
  8346     05AD  2DA8               	goto	u5147
  8347     05AE  0000               	nop
  8348                           
  8349                           ;car_black_box.c: 614:                     break;
  8350     05AF  2DD8               	goto	l4667
  8351     05B0                     l4655:
  8352                           
  8353                           ;car_black_box.c: 616:                     clcd_print("  ", (0xC0 + 3));
  8354     05B0  3054               	movlw	low ((STR_29+15)| (0+32768))
  8355     05B1  00F6               	movwf	clcd_print@str
  8356     05B2  3087               	movlw	high ((STR_29+15)| (0+32768))
  8357     05B3  00F7               	movwf	clcd_print@str+1
  8358     05B4  30C3               	movlw	195
  8359     05B5  00F8               	movwf	clcd_print@addr
  8360     05B6  160A  118A  232F  120A  118A  	fcall	_clcd_print
  8361     05BB  2DA0               	goto	l4653
  8362     05BC                     l4659:
  8363                           
  8364                           ;car_black_box.c: 620:                     clcd_print("  ", (0xC0 + 6));
  8365     05BC  3054               	movlw	low ((STR_29+15)| (0+32768))
  8366     05BD  00F6               	movwf	clcd_print@str
  8367     05BE  3087               	movlw	high ((STR_29+15)| (0+32768))
  8368     05BF  00F7               	movwf	clcd_print@str+1
  8369     05C0  30C6               	movlw	198
  8370     05C1  00F8               	movwf	clcd_print@addr
  8371     05C2  160A  118A  232F  120A  118A  	fcall	_clcd_print
  8372     05C7  2DA0               	goto	l4653
  8373     05C8                     l4665:
  8374                           
  8375                           ; Switch on 2 bytes has been partitioned into a top level switch of size 1, and 1 sub-sw
      +                          itches
  8376                           ; Switch size 1, requested type "simple"
  8377                           ; Number of cases is 1, Range of values is 0 to 0
  8378                           ; switch strategies available:
  8379                           ; Name         Instructions Cycles
  8380                           ; simple_byte            4     3 (average)
  8381                           ; direct_byte           11     8 (fixed)
  8382                           ; jumptable            260     6 (fixed)
  8383                           ;	Chosen strategy is simple_byte
  8384     05C8  0849               	movf	change_time@blink_pos+1,w
  8385     05C9  3A00               	xorlw	0	; case 0
  8386     05CA  1903               	skipnz
  8387     05CB  2DCD               	goto	l5001
  8388     05CC  2DD8               	goto	l4667
  8389     05CD                     l5001:
  8390                           
  8391                           ; Switch size 1, requested type "simple"
  8392                           ; Number of cases is 3, Range of values is 0 to 2
  8393                           ; switch strategies available:
  8394                           ; Name         Instructions Cycles
  8395                           ; simple_byte           10     6 (average)
  8396                           ; direct_byte           17     8 (fixed)
  8397                           ; jumptable            260     6 (fixed)
  8398                           ;	Chosen strategy is simple_byte
  8399     05CD  0848               	movf	change_time@blink_pos,w
  8400     05CE  3A00               	xorlw	0	; case 0
  8401     05CF  1903               	skipnz
  8402     05D0  2D95               	goto	l4651
  8403     05D1  3A01               	xorlw	1	; case 1
  8404     05D2  1903               	skipnz
  8405     05D3  2DB0               	goto	l4655
  8406     05D4  3A03               	xorlw	3	; case 2
  8407     05D5  1903               	skipnz
  8408     05D6  2DBC               	goto	l4659
  8409     05D7  2DD8               	goto	l4667
  8410     05D8                     l4667:
  8411                           
  8412                           ;car_black_box.c: 628:     clcd_putch(new_time[0] / 10 + '0', (0xC0 + 0));
  8413     05D8  30C0               	movlw	192
  8414     05D9  1283               	bcf	3,5	;RP0=0, select bank0
  8415     05DA  1303               	bcf	3,6	;RP1=0, select bank0
  8416     05DB  00A3               	movwf	clcd_putch@addr
  8417     05DC  300A               	movlw	10
  8418     05DD  00F6               	movwf	___lwdiv@divisor
  8419     05DE  3000               	movlw	0
  8420     05DF  00F7               	movwf	___lwdiv@divisor+1
  8421     05E0  083E               	movf	change_time@new_time+1,w
  8422     05E1  00F9               	movwf	___lwdiv@dividend+1
  8423     05E2  083D               	movf	change_time@new_time,w
  8424     05E3  00F8               	movwf	___lwdiv@dividend
  8425     05E4  160A  118A  24ED  120A  118A  	fcall	___lwdiv
  8426     05E9  0876               	movf	?___lwdiv,w
  8427     05EA  3E30               	addlw	48
  8428     05EB  160A  118A  217C  120A  118A  	fcall	_clcd_putch
  8429                           
  8430                           ;car_black_box.c: 629:     clcd_putch(new_time[0] % 10 + '0', (0xC0 + 1));
  8431     05F0  30C1               	movlw	193
  8432     05F1  1283               	bcf	3,5	;RP0=0, select bank0
  8433     05F2  1303               	bcf	3,6	;RP1=0, select bank0
  8434     05F3  00A3               	movwf	clcd_putch@addr
  8435     05F4  300A               	movlw	10
  8436     05F5  00F2               	movwf	___lwmod@divisor
  8437     05F6  3000               	movlw	0
  8438     05F7  00F3               	movwf	___lwmod@divisor+1
  8439     05F8  083E               	movf	change_time@new_time+1,w
  8440     05F9  00F5               	movwf	___lwmod@dividend+1
  8441     05FA  083D               	movf	change_time@new_time,w
  8442     05FB  00F4               	movwf	___lwmod@dividend
  8443     05FC  160A  118A  23F8  120A  118A  	fcall	___lwmod
  8444     0601  0872               	movf	?___lwmod,w
  8445     0602  3E30               	addlw	48
  8446     0603  160A  118A  217C  120A  118A  	fcall	_clcd_putch
  8447                           
  8448                           ;car_black_box.c: 630:     clcd_putch(':', (0xC0 + 2));
  8449     0608  30C2               	movlw	194
  8450     0609  1283               	bcf	3,5	;RP0=0, select bank0
  8451     060A  1303               	bcf	3,6	;RP1=0, select bank0
  8452     060B  00A3               	movwf	clcd_putch@addr
  8453     060C  303A               	movlw	58
  8454     060D  160A  118A  217C  120A  118A  	fcall	_clcd_putch
  8455                           
  8456                           ;car_black_box.c: 633:     clcd_putch(new_time[1] / 10 + '0', (0xC0 + 3));
  8457     0612  30C3               	movlw	195
  8458     0613  1283               	bcf	3,5	;RP0=0, select bank0
  8459     0614  1303               	bcf	3,6	;RP1=0, select bank0
  8460     0615  00A3               	movwf	clcd_putch@addr
  8461     0616  300A               	movlw	10
  8462     0617  00F6               	movwf	___lwdiv@divisor
  8463     0618  3000               	movlw	0
  8464     0619  00F7               	movwf	___lwdiv@divisor+1
  8465     061A  0840               	movf	change_time@new_time+3,w
  8466     061B  00F9               	movwf	___lwdiv@dividend+1
  8467     061C  083F               	movf	change_time@new_time+2,w
  8468     061D  00F8               	movwf	___lwdiv@dividend
  8469     061E  160A  118A  24ED  120A  118A  	fcall	___lwdiv
  8470     0623  0876               	movf	?___lwdiv,w
  8471     0624  3E30               	addlw	48
  8472     0625  160A  118A  217C  120A  118A  	fcall	_clcd_putch
  8473                           
  8474                           ;car_black_box.c: 634:     clcd_putch(new_time[1] % 10 + '0', (0xC0 + 4));
  8475     062A  30C4               	movlw	196
  8476     062B  1283               	bcf	3,5	;RP0=0, select bank0
  8477     062C  1303               	bcf	3,6	;RP1=0, select bank0
  8478     062D  00A3               	movwf	clcd_putch@addr
  8479     062E  300A               	movlw	10
  8480     062F  00F2               	movwf	___lwmod@divisor
  8481     0630  3000               	movlw	0
  8482     0631  00F3               	movwf	___lwmod@divisor+1
  8483     0632  0840               	movf	change_time@new_time+3,w
  8484     0633  00F5               	movwf	___lwmod@dividend+1
  8485     0634  083F               	movf	change_time@new_time+2,w
  8486     0635  00F4               	movwf	___lwmod@dividend
  8487     0636  160A  118A  23F8  120A  118A  	fcall	___lwmod
  8488     063B  0872               	movf	?___lwmod,w
  8489     063C  3E30               	addlw	48
  8490     063D  160A  118A  217C  120A  118A  	fcall	_clcd_putch
  8491                           
  8492                           ;car_black_box.c: 635:     clcd_putch(':', (0xC0 + 5));
  8493     0642  30C5               	movlw	197
  8494     0643  1283               	bcf	3,5	;RP0=0, select bank0
  8495     0644  1303               	bcf	3,6	;RP1=0, select bank0
  8496     0645  00A3               	movwf	clcd_putch@addr
  8497     0646  303A               	movlw	58
  8498     0647  160A  118A  217C  120A  118A  	fcall	_clcd_putch
  8499                           
  8500                           ;car_black_box.c: 638:     clcd_putch(new_time[2] / 10 + '0', (0xC0 + 6));
  8501     064C  30C6               	movlw	198
  8502     064D  1283               	bcf	3,5	;RP0=0, select bank0
  8503     064E  1303               	bcf	3,6	;RP1=0, select bank0
  8504     064F  00A3               	movwf	clcd_putch@addr
  8505     0650  300A               	movlw	10
  8506     0651  00F6               	movwf	___lwdiv@divisor
  8507     0652  3000               	movlw	0
  8508     0653  00F7               	movwf	___lwdiv@divisor+1
  8509     0654  0842               	movf	change_time@new_time+5,w
  8510     0655  00F9               	movwf	___lwdiv@dividend+1
  8511     0656  0841               	movf	change_time@new_time+4,w
  8512     0657  00F8               	movwf	___lwdiv@dividend
  8513     0658  160A  118A  24ED  120A  118A  	fcall	___lwdiv
  8514     065D  0876               	movf	?___lwdiv,w
  8515     065E  3E30               	addlw	48
  8516     065F  160A  118A  217C  120A  118A  	fcall	_clcd_putch
  8517                           
  8518                           ;car_black_box.c: 639:     clcd_putch(new_time[2] % 10 + '0', (0xC0 + 7));
  8519     0664  30C7               	movlw	199
  8520     0665  1283               	bcf	3,5	;RP0=0, select bank0
  8521     0666  1303               	bcf	3,6	;RP1=0, select bank0
  8522     0667  00A3               	movwf	clcd_putch@addr
  8523     0668  300A               	movlw	10
  8524     0669  00F2               	movwf	___lwmod@divisor
  8525     066A  3000               	movlw	0
  8526     066B  00F3               	movwf	___lwmod@divisor+1
  8527     066C  0842               	movf	change_time@new_time+5,w
  8528     066D  00F5               	movwf	___lwmod@dividend+1
  8529     066E  0841               	movf	change_time@new_time+4,w
  8530     066F  00F4               	movwf	___lwmod@dividend
  8531     0670  160A  118A  23F8  120A  118A  	fcall	___lwmod
  8532     0675  0872               	movf	?___lwmod,w
  8533     0676  3E30               	addlw	48
  8534     0677  160A  118A  217C  120A  118A  	fcall	_clcd_putch
  8535     067C  2C43               	goto	l4589
  8536     067D                     l193:
  8537     067D  0008               	return
  8538     067E                     __end_of_change_time:
  8539                           
  8540                           	psect	text30
  8541     1191                     __ptext30:	
  8542 ;; *************** function _write_ds1307 *****************
  8543 ;; Defined at:
  8544 ;;		line 33 in file "ds1307.c"
  8545 ;; Parameters:    Size  Location     Type
  8546 ;;  addr            1    wreg     unsigned char 
  8547 ;;  data            1    3[COMMON] unsigned char 
  8548 ;; Auto vars:     Size  Location     Type
  8549 ;;  addr            1    4[COMMON] unsigned char 
  8550 ;; Return value:  Size  Location     Type
  8551 ;;                  1    wreg      void 
  8552 ;; Registers used:
  8553 ;;		wreg, status,2, status,0, pclath, cstack
  8554 ;; Tracked objects:
  8555 ;;		On entry : 0/0
  8556 ;;		On exit  : 0/0
  8557 ;;		Unchanged: 0/0
  8558 ;; Data sizes:     COMMON   BANK0   BANK1   BANK3   BANK2
  8559 ;;      Params:         1       0       0       0       0
  8560 ;;      Locals:         1       0       0       0       0
  8561 ;;      Temps:          0       0       0       0       0
  8562 ;;      Totals:         2       0       0       0       0
  8563 ;;Total ram usage:        2 bytes
  8564 ;; Hardware stack levels used: 1
  8565 ;; Hardware stack levels required when called: 3
  8566 ;; This function calls:
  8567 ;;		_i2c_start
  8568 ;;		_i2c_stop
  8569 ;;		_i2c_write
  8570 ;; This function is called by:
  8571 ;;		_change_time
  8572 ;;		_init_ds1307
  8573 ;; This function uses a non-reentrant model
  8574 ;;
  8575                           
  8576     1191                     _write_ds1307:	
  8577                           ;psect for function _write_ds1307
  8578                           
  8579                           
  8580                           ;incstack = 0
  8581                           ; Regs used in _write_ds1307: [wreg+status,2+status,0+pclath+cstack]
  8582                           ;write_ds1307@addr stored from wreg
  8583     1191  00F4               	movwf	write_ds1307@addr
  8584     1192                     l3803:
  8585                           
  8586                           ;ds1307.c: 33: void write_ds1307(unsigned char addr, unsigned char data);ds1307.c: 34: {
      +                          ;ds1307.c: 35:     i2c_start();
  8587     1192  160A  118A  20DC  160A  118A  	fcall	_i2c_start
  8588                           
  8589                           ;ds1307.c: 36:     i2c_write(0b11010000);
  8590     1197  30D0               	movlw	208
  8591     1198  160A  118A  20EE  160A  118A  	fcall	_i2c_write
  8592                           
  8593                           ;ds1307.c: 37:     i2c_write(addr);
  8594     119D  0874               	movf	write_ds1307@addr,w
  8595     119E  160A  118A  20EE  160A  118A  	fcall	_i2c_write
  8596                           
  8597                           ;ds1307.c: 38:     i2c_write(data);
  8598     11A3  0873               	movf	write_ds1307@data,w
  8599     11A4  160A  118A  20EE  160A  118A  	fcall	_i2c_write
  8600                           
  8601                           ;ds1307.c: 39:     i2c_stop();
  8602     11A9  160A  118A  20E5  160A  118A  	fcall	_i2c_stop
  8603     11AE                     l288:
  8604     11AE  0008               	return
  8605     11AF                     __end_of_write_ds1307:
  8606                           
  8607                           	psect	text31
  8608     173A                     __ptext31:	
  8609 ;; *************** function _get_time *****************
  8610 ;; Defined at:
  8611 ;;		line 20 in file "car_black_box.c"
  8612 ;; Parameters:    Size  Location     Type
  8613 ;;		None
  8614 ;; Auto vars:     Size  Location     Type
  8615 ;;		None
  8616 ;; Return value:  Size  Location     Type
  8617 ;;                  1    wreg      void 
  8618 ;; Registers used:
  8619 ;;		wreg, status,2, status,0, pclath, cstack
  8620 ;; Tracked objects:
  8621 ;;		On entry : 0/0
  8622 ;;		On exit  : 0/0
  8623 ;;		Unchanged: 0/0
  8624 ;; Data sizes:     COMMON   BANK0   BANK1   BANK3   BANK2
  8625 ;;      Params:         0       0       0       0       0
  8626 ;;      Locals:         0       0       0       0       0
  8627 ;;      Temps:          1       0       0       0       0
  8628 ;;      Totals:         1       0       0       0       0
  8629 ;;Total ram usage:        1 bytes
  8630 ;; Hardware stack levels used: 1
  8631 ;; Hardware stack levels required when called: 5
  8632 ;; This function calls:
  8633 ;;		_read_ds1307
  8634 ;; This function is called by:
  8635 ;;		_display_time
  8636 ;;		_log_car_event
  8637 ;;		_change_time
  8638 ;; This function uses a non-reentrant model
  8639 ;;
  8640                           
  8641     173A                     _get_time:	
  8642                           ;psect for function _get_time
  8643                           
  8644     173A                     l3773:	
  8645                           ;incstack = 0
  8646                           ; Regs used in _get_time: [wreg+status,2+status,0+pclath+cstack]
  8647                           
  8648                           
  8649                           ;car_black_box.c: 22:     clock_reg[0] = read_ds1307(0x02);
  8650     173A  3002               	movlw	2
  8651     173B  160A  118A  22AE  160A  118A  	fcall	_read_ds1307
  8652     1740  1283               	bcf	3,5	;RP0=0, select bank0
  8653     1741  1303               	bcf	3,6	;RP1=0, select bank0
  8654     1742  00C3               	movwf	_clock_reg
  8655                           
  8656                           ;car_black_box.c: 24:     clock_reg[1] = read_ds1307(0x01);
  8657     1743  3001               	movlw	1
  8658     1744  160A  118A  22AE  160A  118A  	fcall	_read_ds1307
  8659     1749  1283               	bcf	3,5	;RP0=0, select bank0
  8660     174A  1303               	bcf	3,6	;RP1=0, select bank0
  8661     174B  00C4               	movwf	_clock_reg+1
  8662                           
  8663                           ;car_black_box.c: 26:     clock_reg[2] = read_ds1307(0x00);
  8664     174C  3000               	movlw	0
  8665     174D  160A  118A  22AE  160A  118A  	fcall	_read_ds1307
  8666     1752  1283               	bcf	3,5	;RP0=0, select bank0
  8667     1753  1303               	bcf	3,6	;RP1=0, select bank0
  8668     1754  00C5               	movwf	_clock_reg+2
  8669     1755                     l3775:
  8670                           
  8671                           ;car_black_box.c: 28:     time[0] = ((clock_reg[0] >> 4) & 0x03) + '0';
  8672     1755  0843               	movf	_clock_reg,w
  8673     1756  00F6               	movwf	??_get_time
  8674     1757  3004               	movlw	4
  8675     1758                     u3375:
  8676     1758  1003               	clrc
  8677     1759  0CF6               	rrf	??_get_time,f
  8678     175A  3EFF               	addlw	-1
  8679     175B  1D03               	skipz
  8680     175C  2F58               	goto	u3375
  8681     175D  0876               	movf	??_get_time,w
  8682     175E  3903               	andlw	3
  8683     175F  3E30               	addlw	48
  8684     1760  1683               	bsf	3,5	;RP0=1, select bank1
  8685     1761  1303               	bcf	3,6	;RP1=0, select bank1
  8686     1762  00B8               	movwf	_time^(0+128)
  8687     1763                     l3777:
  8688                           
  8689                           ;car_black_box.c: 29:     time[1] = (clock_reg[0] & 0x0F) + '0';
  8690     1763  1283               	bcf	3,5	;RP0=0, select bank0
  8691     1764  1303               	bcf	3,6	;RP1=0, select bank0
  8692     1765  0843               	movf	_clock_reg,w
  8693     1766  390F               	andlw	15
  8694     1767  3E30               	addlw	48
  8695     1768  1683               	bsf	3,5	;RP0=1, select bank1
  8696     1769  1303               	bcf	3,6	;RP1=0, select bank1
  8697     176A  00B9               	movwf	(_time^(0+128)+1)
  8698     176B                     l3779:
  8699                           
  8700                           ;car_black_box.c: 31:     time[2] = ((clock_reg[1] >> 4) & 0x07) + '0';
  8701     176B  1283               	bcf	3,5	;RP0=0, select bank0
  8702     176C  1303               	bcf	3,6	;RP1=0, select bank0
  8703     176D  0844               	movf	_clock_reg+1,w
  8704     176E  00F6               	movwf	??_get_time
  8705     176F  3004               	movlw	4
  8706     1770                     u3385:
  8707     1770  1003               	clrc
  8708     1771  0CF6               	rrf	??_get_time,f
  8709     1772  3EFF               	addlw	-1
  8710     1773  1D03               	skipz
  8711     1774  2F70               	goto	u3385
  8712     1775  0876               	movf	??_get_time,w
  8713     1776  3907               	andlw	7
  8714     1777  3E30               	addlw	48
  8715     1778  1683               	bsf	3,5	;RP0=1, select bank1
  8716     1779  1303               	bcf	3,6	;RP1=0, select bank1
  8717     177A  00BA               	movwf	(_time^(0+128)+2)
  8718     177B                     l3781:
  8719                           
  8720                           ;car_black_box.c: 32:     time[3] = (clock_reg[1] & 0x0F) + '0';
  8721     177B  1283               	bcf	3,5	;RP0=0, select bank0
  8722     177C  1303               	bcf	3,6	;RP1=0, select bank0
  8723     177D  0844               	movf	_clock_reg+1,w
  8724     177E  390F               	andlw	15
  8725     177F  3E30               	addlw	48
  8726     1780  1683               	bsf	3,5	;RP0=1, select bank1
  8727     1781  1303               	bcf	3,6	;RP1=0, select bank1
  8728     1782  00BB               	movwf	(_time^(0+128)+3)
  8729     1783                     l3783:
  8730                           
  8731                           ;car_black_box.c: 34:     time[4] = ((clock_reg[2] >> 4) & 0x07) + '0';
  8732     1783  1283               	bcf	3,5	;RP0=0, select bank0
  8733     1784  1303               	bcf	3,6	;RP1=0, select bank0
  8734     1785  0845               	movf	_clock_reg+2,w
  8735     1786  00F6               	movwf	??_get_time
  8736     1787  3004               	movlw	4
  8737     1788                     u3395:
  8738     1788  1003               	clrc
  8739     1789  0CF6               	rrf	??_get_time,f
  8740     178A  3EFF               	addlw	-1
  8741     178B  1D03               	skipz
  8742     178C  2F88               	goto	u3395
  8743     178D  0876               	movf	??_get_time,w
  8744     178E  3907               	andlw	7
  8745     178F  3E30               	addlw	48
  8746     1790  1683               	bsf	3,5	;RP0=1, select bank1
  8747     1791  1303               	bcf	3,6	;RP1=0, select bank1
  8748     1792  00BC               	movwf	(_time^(0+128)+4)
  8749     1793                     l3785:
  8750                           
  8751                           ;car_black_box.c: 35:     time[5] = (clock_reg[2] & 0x0F) + '0';
  8752     1793  1283               	bcf	3,5	;RP0=0, select bank0
  8753     1794  1303               	bcf	3,6	;RP1=0, select bank0
  8754     1795  0845               	movf	_clock_reg+2,w
  8755     1796  390F               	andlw	15
  8756     1797  3E30               	addlw	48
  8757     1798  1683               	bsf	3,5	;RP0=1, select bank1
  8758     1799  1303               	bcf	3,6	;RP1=0, select bank1
  8759     179A  00BD               	movwf	(_time^(0+128)+5)
  8760     179B                     l3787:
  8761                           
  8762                           ;car_black_box.c: 36:     time[6] = '\0';
  8763     179B  01BE               	clrf	(_time^(0+128)+6)
  8764     179C                     l64:
  8765     179C  0008               	return
  8766     179D                     __end_of_get_time:
  8767                           
  8768                           	psect	text32
  8769     12AE                     __ptext32:	
  8770 ;; *************** function _read_ds1307 *****************
  8771 ;; Defined at:
  8772 ;;		line 18 in file "ds1307.c"
  8773 ;; Parameters:    Size  Location     Type
  8774 ;;  addr            1    wreg     unsigned char 
  8775 ;; Auto vars:     Size  Location     Type
  8776 ;;  addr            1    4[COMMON] unsigned char 
  8777 ;;  data            1    5[COMMON] unsigned char 
  8778 ;; Return value:  Size  Location     Type
  8779 ;;                  1    wreg      unsigned char 
  8780 ;; Registers used:
  8781 ;;		wreg, status,2, status,0, pclath, cstack
  8782 ;; Tracked objects:
  8783 ;;		On entry : 0/0
  8784 ;;		On exit  : 0/0
  8785 ;;		Unchanged: 0/0
  8786 ;; Data sizes:     COMMON   BANK0   BANK1   BANK3   BANK2
  8787 ;;      Params:         0       0       0       0       0
  8788 ;;      Locals:         2       0       0       0       0
  8789 ;;      Temps:          0       0       0       0       0
  8790 ;;      Totals:         2       0       0       0       0
  8791 ;;Total ram usage:        2 bytes
  8792 ;; Hardware stack levels used: 1
  8793 ;; Hardware stack levels required when called: 4
  8794 ;; This function calls:
  8795 ;;		_i2c_read
  8796 ;;		_i2c_rep_start
  8797 ;;		_i2c_start
  8798 ;;		_i2c_stop
  8799 ;;		_i2c_write
  8800 ;; This function is called by:
  8801 ;;		_get_time
  8802 ;;		_init_ds1307
  8803 ;; This function uses a non-reentrant model
  8804 ;;
  8805                           
  8806     12AE                     _read_ds1307:	
  8807                           ;psect for function _read_ds1307
  8808                           
  8809                           
  8810                           ;incstack = 0
  8811                           ; Regs used in _read_ds1307: [wreg+status,2+status,0+pclath+cstack]
  8812                           ;read_ds1307@addr stored from wreg
  8813     12AE  00F4               	movwf	read_ds1307@addr
  8814     12AF                     l3755:
  8815                           
  8816                           ;ds1307.c: 18: unsigned char read_ds1307(unsigned char addr);ds1307.c: 19: {;ds1307.c: 2
      +                          0:     unsigned char data;;ds1307.c: 22:     i2c_start();
  8817     12AF  160A  118A  20DC  160A  118A  	fcall	_i2c_start
  8818                           
  8819                           ;ds1307.c: 23:     i2c_write(0b11010000);
  8820     12B4  30D0               	movlw	208
  8821     12B5  160A  118A  20EE  160A  118A  	fcall	_i2c_write
  8822                           
  8823                           ;ds1307.c: 24:     i2c_write(addr);
  8824     12BA  0874               	movf	read_ds1307@addr,w
  8825     12BB  160A  118A  20EE  160A  118A  	fcall	_i2c_write
  8826                           
  8827                           ;ds1307.c: 25:     i2c_rep_start();
  8828     12C0  160A  118A  20F9  160A  118A  	fcall	_i2c_rep_start
  8829                           
  8830                           ;ds1307.c: 26:     i2c_write(0b11010001);
  8831     12C5  30D1               	movlw	209
  8832     12C6  160A  118A  20EE  160A  118A  	fcall	_i2c_write
  8833                           
  8834                           ;ds1307.c: 27:     data = i2c_read(0);
  8835     12CB  3000               	movlw	0
  8836     12CC  160A  118A  21CF  160A  118A  	fcall	_i2c_read
  8837     12D1  00F5               	movwf	read_ds1307@data
  8838                           
  8839                           ;ds1307.c: 28:     i2c_stop();
  8840     12D2  160A  118A  20E5  160A  118A  	fcall	_i2c_stop
  8841     12D7                     l3757:
  8842                           
  8843                           ;ds1307.c: 30:     return data;
  8844     12D7  0875               	movf	read_ds1307@data,w
  8845     12D8                     l285:
  8846     12D8  0008               	return
  8847     12D9                     __end_of_read_ds1307:
  8848                           
  8849                           	psect	text33
  8850     10F9                     __ptext33:	
  8851 ;; *************** function _i2c_rep_start *****************
  8852 ;; Defined at:
  8853 ;;		line 32 in file "i2c.c"
  8854 ;; Parameters:    Size  Location     Type
  8855 ;;		None
  8856 ;; Auto vars:     Size  Location     Type
  8857 ;;		None
  8858 ;; Return value:  Size  Location     Type
  8859 ;;                  1    wreg      void 
  8860 ;; Registers used:
  8861 ;;		wreg, status,2, status,0, pclath, cstack
  8862 ;; Tracked objects:
  8863 ;;		On entry : 0/0
  8864 ;;		On exit  : 0/0
  8865 ;;		Unchanged: 0/0
  8866 ;; Data sizes:     COMMON   BANK0   BANK1   BANK3   BANK2
  8867 ;;      Params:         0       0       0       0       0
  8868 ;;      Locals:         0       0       0       0       0
  8869 ;;      Temps:          0       0       0       0       0
  8870 ;;      Totals:         0       0       0       0       0
  8871 ;;Total ram usage:        0 bytes
  8872 ;; Hardware stack levels used: 1
  8873 ;; Hardware stack levels required when called: 3
  8874 ;; This function calls:
  8875 ;;		_i2c_start
  8876 ;;		_i2c_stop
  8877 ;; This function is called by:
  8878 ;;		_read_ds1307
  8879 ;;		_ext_eeprom_read
  8880 ;; This function uses a non-reentrant model
  8881 ;;
  8882                           
  8883     10F9                     _i2c_rep_start:	
  8884                           ;psect for function _i2c_rep_start
  8885                           
  8886     10F9                     l3739:	
  8887                           ;incstack = 0
  8888                           ; Regs used in _i2c_rep_start: [wreg+status,2+status,0+pclath+cstack]
  8889                           
  8890                           
  8891                           ;i2c.c: 34:     i2c_stop();
  8892     10F9  160A  118A  20E5  160A  118A  	fcall	_i2c_stop
  8893                           
  8894                           ;i2c.c: 35:     i2c_start();
  8895     10FE  160A  118A  20DC  160A  118A  	fcall	_i2c_start
  8896     1103                     l353:
  8897     1103  0008               	return
  8898     1104                     __end_of_i2c_rep_start:
  8899                           
  8900                           	psect	text34
  8901     11CF                     __ptext34:	
  8902 ;; *************** function _i2c_read *****************
  8903 ;; Defined at:
  8904 ;;		line 45 in file "i2c.c"
  8905 ;; Parameters:    Size  Location     Type
  8906 ;;  ack             1    wreg     unsigned char 
  8907 ;; Auto vars:     Size  Location     Type
  8908 ;;  ack             1    2[COMMON] unsigned char 
  8909 ;;  data            1    3[COMMON] unsigned char 
  8910 ;; Return value:  Size  Location     Type
  8911 ;;                  1    wreg      unsigned char 
  8912 ;; Registers used:
  8913 ;;		wreg, status,2, status,0, pclath, cstack
  8914 ;; Tracked objects:
  8915 ;;		On entry : 0/0
  8916 ;;		On exit  : 0/0
  8917 ;;		Unchanged: 0/0
  8918 ;; Data sizes:     COMMON   BANK0   BANK1   BANK3   BANK2
  8919 ;;      Params:         0       0       0       0       0
  8920 ;;      Locals:         2       0       0       0       0
  8921 ;;      Temps:          0       0       0       0       0
  8922 ;;      Totals:         2       0       0       0       0
  8923 ;;Total ram usage:        2 bytes
  8924 ;; Hardware stack levels used: 1
  8925 ;; Hardware stack levels required when called: 2
  8926 ;; This function calls:
  8927 ;;		_i2c_wait_for_idle
  8928 ;; This function is called by:
  8929 ;;		_read_ds1307
  8930 ;;		_ext_eeprom_read
  8931 ;; This function uses a non-reentrant model
  8932 ;;
  8933                           
  8934     11CF                     _i2c_read:	
  8935                           ;psect for function _i2c_read
  8936                           
  8937                           
  8938                           ;incstack = 0
  8939                           ; Regs used in _i2c_read: [wreg+status,2+status,0+pclath+cstack]
  8940                           ;i2c_read@ack stored from wreg
  8941     11CF  00F2               	movwf	i2c_read@ack
  8942     11D0                     l3741:
  8943                           
  8944                           ;i2c.c: 45: unsigned char i2c_read(unsigned char ack);i2c.c: 46: {;i2c.c: 47:     unsign
      +                          ed char data;;i2c.c: 49:     i2c_wait_for_idle();
  8945     11D0  160A  118A  211A  160A  118A  	fcall	_i2c_wait_for_idle
  8946     11D5                     l3743:
  8947                           
  8948                           ;i2c.c: 50:     RCEN = 1;
  8949     11D5  1683               	bsf	3,5	;RP0=1, select bank1
  8950     11D6  1303               	bcf	3,6	;RP1=0, select bank1
  8951     11D7  1591               	bsf	17,3	;volatile
  8952                           
  8953                           ;i2c.c: 52:     i2c_wait_for_idle();
  8954     11D8  160A  118A  211A  160A  118A  	fcall	_i2c_wait_for_idle
  8955     11DD                     l3745:
  8956                           
  8957                           ;i2c.c: 53:     data = SSPBUF;
  8958     11DD  1283               	bcf	3,5	;RP0=0, select bank0
  8959     11DE  1303               	bcf	3,6	;RP1=0, select bank0
  8960     11DF  0813               	movf	19,w	;volatile
  8961     11E0  00F3               	movwf	i2c_read@data
  8962     11E1                     l3747:
  8963                           
  8964                           ;i2c.c: 55:     if (ack == 1)
  8965     11E1  0372               	decf	i2c_read@ack,w
  8966     11E2  1D03               	btfss	3,2
  8967     11E3  29E5               	goto	u3341
  8968     11E4  29E6               	goto	u3340
  8969     11E5                     u3341:
  8970     11E5  29EA               	goto	l359
  8971     11E6                     u3340:
  8972     11E6                     l3749:
  8973                           
  8974                           ;i2c.c: 56:     {;i2c.c: 57:         ACKDT = 1;
  8975     11E6  1683               	bsf	3,5	;RP0=1, select bank1
  8976     11E7  1303               	bcf	3,6	;RP1=0, select bank1
  8977     11E8  1691               	bsf	17,5	;volatile
  8978                           
  8979                           ;i2c.c: 58:     }
  8980     11E9  29ED               	goto	l360
  8981     11EA                     l359:	
  8982                           ;i2c.c: 59:     else
  8983                           
  8984                           
  8985                           ;i2c.c: 60:     {;i2c.c: 61:         ACKDT = 0;
  8986     11EA  1683               	bsf	3,5	;RP0=1, select bank1
  8987     11EB  1303               	bcf	3,6	;RP1=0, select bank1
  8988     11EC  1291               	bcf	17,5	;volatile
  8989     11ED                     l360:	
  8990                           ;i2c.c: 62:     }
  8991                           
  8992                           
  8993                           ;i2c.c: 64:     ACKEN = 1;
  8994     11ED  1611               	bsf	17,4	;volatile
  8995     11EE                     l3751:
  8996                           
  8997                           ;i2c.c: 66:     return data;
  8998     11EE  0873               	movf	i2c_read@data,w
  8999     11EF                     l361:
  9000     11EF  0008               	return
  9001     11F0                     __end_of_i2c_read:
  9002                           
  9003                           	psect	text35
  9004     1211                     __ptext35:	
  9005 ;; *************** function ___wmul *****************
  9006 ;; Defined at:
  9007 ;;		line 15 in file "C:\Program Files\Microchip\xc8\v3.00\pic\sources\c99\common\Umul16.c"
  9008 ;; Parameters:    Size  Location     Type
  9009 ;;  multiplier      2    2[COMMON] unsigned int 
  9010 ;;  multiplicand    2    4[COMMON] unsigned int 
  9011 ;; Auto vars:     Size  Location     Type
  9012 ;;  product         2    6[COMMON] unsigned int 
  9013 ;; Return value:  Size  Location     Type
  9014 ;;                  2    2[COMMON] unsigned int 
  9015 ;; Registers used:
  9016 ;;		wreg, status,2, status,0
  9017 ;; Tracked objects:
  9018 ;;		On entry : 0/0
  9019 ;;		On exit  : 0/0
  9020 ;;		Unchanged: 0/0
  9021 ;; Data sizes:     COMMON   BANK0   BANK1   BANK3   BANK2
  9022 ;;      Params:         4       0       0       0       0
  9023 ;;      Locals:         2       0       0       0       0
  9024 ;;      Temps:          0       0       0       0       0
  9025 ;;      Totals:         6       0       0       0       0
  9026 ;;Total ram usage:        6 bytes
  9027 ;; Hardware stack levels used: 1
  9028 ;; Hardware stack levels required when called: 1
  9029 ;; This function calls:
  9030 ;;		Nothing
  9031 ;; This function is called by:
  9032 ;;		_change_time
  9033 ;; This function uses a non-reentrant model
  9034 ;;
  9035                           
  9036     1211                     ___wmul:	
  9037                           ;psect for function ___wmul
  9038                           
  9039     1211                     l3989:	
  9040                           ;incstack = 0
  9041                           ; Regs used in ___wmul: [wreg+status,2+status,0]
  9042                           
  9043     1211  01F6               	clrf	___wmul@product
  9044     1212  01F7               	clrf	___wmul@product+1
  9045     1213                     l3991:
  9046     1213  1C72               	btfss	___wmul@multiplier,0
  9047     1214  2A16               	goto	u3651
  9048     1215  2A17               	goto	u3650
  9049     1216                     u3651:
  9050     1216  2A1D               	goto	l638
  9051     1217                     u3650:
  9052     1217                     l3993:
  9053     1217  0874               	movf	___wmul@multiplicand,w
  9054     1218  07F6               	addwf	___wmul@product,f
  9055     1219  1803               	skipnc
  9056     121A  0AF7               	incf	___wmul@product+1,f
  9057     121B  0875               	movf	___wmul@multiplicand+1,w
  9058     121C  07F7               	addwf	___wmul@product+1,f
  9059     121D                     l638:
  9060     121D  3001               	movlw	1
  9061     121E                     u3665:
  9062     121E  1003               	clrc
  9063     121F  0DF4               	rlf	___wmul@multiplicand,f
  9064     1220  0DF5               	rlf	___wmul@multiplicand+1,f
  9065     1221  3EFF               	addlw	-1
  9066     1222  1D03               	skipz
  9067     1223  2A1E               	goto	u3665
  9068     1224                     l3995:
  9069     1224  3001               	movlw	1
  9070     1225                     u3675:
  9071     1225  1003               	clrc
  9072     1226  0CF3               	rrf	___wmul@multiplier+1,f
  9073     1227  0CF2               	rrf	___wmul@multiplier,f
  9074     1228  3EFF               	addlw	-1
  9075     1229  1D03               	skipz
  9076     122A  2A25               	goto	u3675
  9077     122B                     l3997:
  9078     122B  0872               	movf	___wmul@multiplier,w
  9079     122C  0473               	iorwf	___wmul@multiplier+1,w
  9080     122D  1D03               	btfss	3,2
  9081     122E  2A30               	goto	u3681
  9082     122F  2A31               	goto	u3680
  9083     1230                     u3681:
  9084     1230  2A13               	goto	l3991
  9085     1231                     u3680:
  9086     1231                     l3999:
  9087     1231  0877               	movf	___wmul@product+1,w
  9088     1232  00F3               	movwf	?___wmul+1
  9089     1233  0876               	movf	___wmul@product,w
  9090     1234  00F2               	movwf	?___wmul
  9091     1235                     l640:
  9092     1235  0008               	return
  9093     1236                     __end_of___wmul:
  9094                           
  9095                           	psect	text36
  9096     13F8                     __ptext36:	
  9097 ;; *************** function ___lwmod *****************
  9098 ;; Defined at:
  9099 ;;		line 5 in file "C:\Program Files\Microchip\xc8\v3.00\pic\sources\c99\common\lwmod.c"
  9100 ;; Parameters:    Size  Location     Type
  9101 ;;  divisor         2    2[COMMON] unsigned int 
  9102 ;;  dividend        2    4[COMMON] unsigned int 
  9103 ;; Auto vars:     Size  Location     Type
  9104 ;;  counter         1    6[COMMON] unsigned char 
  9105 ;; Return value:  Size  Location     Type
  9106 ;;                  2    2[COMMON] unsigned int 
  9107 ;; Registers used:
  9108 ;;		wreg, status,2, status,0
  9109 ;; Tracked objects:
  9110 ;;		On entry : 0/0
  9111 ;;		On exit  : 0/0
  9112 ;;		Unchanged: 0/0
  9113 ;; Data sizes:     COMMON   BANK0   BANK1   BANK3   BANK2
  9114 ;;      Params:         4       0       0       0       0
  9115 ;;      Locals:         1       0       0       0       0
  9116 ;;      Temps:          0       0       0       0       0
  9117 ;;      Totals:         5       0       0       0       0
  9118 ;;Total ram usage:        5 bytes
  9119 ;; Hardware stack levels used: 1
  9120 ;; Hardware stack levels required when called: 1
  9121 ;; This function calls:
  9122 ;;		Nothing
  9123 ;; This function is called by:
  9124 ;;		_change_time
  9125 ;;		_login
  9126 ;; This function uses a non-reentrant model
  9127 ;;
  9128                           
  9129     13F8                     ___lwmod:	
  9130                           ;psect for function ___lwmod
  9131                           
  9132     13F8                     l4111:	
  9133                           ;incstack = 0
  9134                           ; Regs used in ___lwmod: [wreg+status,2+status,0]
  9135                           
  9136     13F8  0872               	movf	___lwmod@divisor,w
  9137     13F9  0473               	iorwf	___lwmod@divisor+1,w
  9138     13FA  1903               	btfsc	3,2
  9139     13FB  2BFD               	goto	u3951
  9140     13FC  2BFE               	goto	u3950
  9141     13FD                     u3951:
  9142     13FD  2C2B               	goto	l4129
  9143     13FE                     u3950:
  9144     13FE                     l4113:
  9145     13FE  3001               	movlw	1
  9146     13FF  00F6               	movwf	___lwmod@counter
  9147     1400  2C0A               	goto	l4119
  9148     1401                     l4115:
  9149     1401  3001               	movlw	1
  9150     1402                     u3965:
  9151     1402  1003               	clrc
  9152     1403  0DF2               	rlf	___lwmod@divisor,f
  9153     1404  0DF3               	rlf	___lwmod@divisor+1,f
  9154     1405  3EFF               	addlw	-1
  9155     1406  1D03               	skipz
  9156     1407  2C02               	goto	u3965
  9157     1408                     l4117:
  9158     1408  3001               	movlw	1
  9159     1409  07F6               	addwf	___lwmod@counter,f
  9160     140A                     l4119:
  9161     140A  1FF3               	btfss	___lwmod@divisor+1,7
  9162     140B  2C0D               	goto	u3971
  9163     140C  2C0E               	goto	u3970
  9164     140D                     u3971:
  9165     140D  2C01               	goto	l4115
  9166     140E                     u3970:
  9167     140E                     l4121:
  9168     140E  0873               	movf	___lwmod@divisor+1,w
  9169     140F  0275               	subwf	___lwmod@dividend+1,w
  9170     1410  1D03               	skipz
  9171     1411  2C14               	goto	u3985
  9172     1412  0872               	movf	___lwmod@divisor,w
  9173     1413  0274               	subwf	___lwmod@dividend,w
  9174     1414                     u3985:
  9175     1414  1C03               	skipc
  9176     1415  2C17               	goto	u3981
  9177     1416  2C18               	goto	u3980
  9178     1417                     u3981:
  9179     1417  2C1E               	goto	l4125
  9180     1418                     u3980:
  9181     1418                     l4123:
  9182     1418  0872               	movf	___lwmod@divisor,w
  9183     1419  02F4               	subwf	___lwmod@dividend,f
  9184     141A  0873               	movf	___lwmod@divisor+1,w
  9185     141B  1C03               	skipc
  9186     141C  03F5               	decf	___lwmod@dividend+1,f
  9187     141D  02F5               	subwf	___lwmod@dividend+1,f
  9188     141E                     l4125:
  9189     141E  3001               	movlw	1
  9190     141F                     u3995:
  9191     141F  1003               	clrc
  9192     1420  0CF3               	rrf	___lwmod@divisor+1,f
  9193     1421  0CF2               	rrf	___lwmod@divisor,f
  9194     1422  3EFF               	addlw	-1
  9195     1423  1D03               	skipz
  9196     1424  2C1F               	goto	u3995
  9197     1425                     l4127:
  9198     1425  3001               	movlw	1
  9199     1426  02F6               	subwf	___lwmod@counter,f
  9200     1427  1D03               	btfss	3,2
  9201     1428  2C2A               	goto	u4001
  9202     1429  2C2B               	goto	u4000
  9203     142A                     u4001:
  9204     142A  2C0E               	goto	l4121
  9205     142B                     u4000:
  9206     142B                     l4129:
  9207     142B  0875               	movf	___lwmod@dividend+1,w
  9208     142C  00F3               	movwf	?___lwmod+1
  9209     142D  0874               	movf	___lwmod@dividend,w
  9210     142E  00F2               	movwf	?___lwmod
  9211     142F                     l928:
  9212     142F  0008               	return
  9213     1430                     __end_of___lwmod:
  9214                           
  9215                           	psect	text37
  9216     14ED                     __ptext37:	
  9217 ;; *************** function ___lwdiv *****************
  9218 ;; Defined at:
  9219 ;;		line 5 in file "C:\Program Files\Microchip\xc8\v3.00\pic\sources\c99\common\lwdiv.c"
  9220 ;; Parameters:    Size  Location     Type
  9221 ;;  divisor         2    6[COMMON] unsigned int 
  9222 ;;  dividend        2    8[COMMON] unsigned int 
  9223 ;; Auto vars:     Size  Location     Type
  9224 ;;  quotient        2    1[BANK0 ] unsigned int 
  9225 ;;  counter         1    0[BANK0 ] unsigned char 
  9226 ;; Return value:  Size  Location     Type
  9227 ;;                  2    6[COMMON] unsigned int 
  9228 ;; Registers used:
  9229 ;;		wreg, status,2, status,0
  9230 ;; Tracked objects:
  9231 ;;		On entry : 0/0
  9232 ;;		On exit  : 0/0
  9233 ;;		Unchanged: 0/0
  9234 ;; Data sizes:     COMMON   BANK0   BANK1   BANK3   BANK2
  9235 ;;      Params:         4       0       0       0       0
  9236 ;;      Locals:         0       3       0       0       0
  9237 ;;      Temps:          0       0       0       0       0
  9238 ;;      Totals:         4       3       0       0       0
  9239 ;;Total ram usage:        7 bytes
  9240 ;; Hardware stack levels used: 1
  9241 ;; Hardware stack levels required when called: 1
  9242 ;; This function calls:
  9243 ;;		Nothing
  9244 ;; This function is called by:
  9245 ;;		_change_time
  9246 ;;		_main
  9247 ;;		_login
  9248 ;; This function uses a non-reentrant model
  9249 ;;
  9250                           
  9251     14ED                     ___lwdiv:	
  9252                           ;psect for function ___lwdiv
  9253                           
  9254     14ED                     l4085:	
  9255                           ;incstack = 0
  9256                           ; Regs used in ___lwdiv: [wreg+status,2+status,0]
  9257                           
  9258     14ED  1283               	bcf	3,5	;RP0=0, select bank0
  9259     14EE  1303               	bcf	3,6	;RP1=0, select bank0
  9260     14EF  01A1               	clrf	___lwdiv@quotient
  9261     14F0  01A2               	clrf	___lwdiv@quotient+1
  9262     14F1                     l4087:
  9263     14F1  0876               	movf	___lwdiv@divisor,w
  9264     14F2  0477               	iorwf	___lwdiv@divisor+1,w
  9265     14F3  1903               	btfsc	3,2
  9266     14F4  2CF6               	goto	u3881
  9267     14F5  2CF7               	goto	u3880
  9268     14F6                     u3881:
  9269     14F6  2D2C               	goto	l4107
  9270     14F7                     u3880:
  9271     14F7                     l4089:
  9272     14F7  3001               	movlw	1
  9273     14F8  00A0               	movwf	___lwdiv@counter
  9274     14F9  2D03               	goto	l4095
  9275     14FA                     l4091:
  9276     14FA  3001               	movlw	1
  9277     14FB                     u3895:
  9278     14FB  1003               	clrc
  9279     14FC  0DF6               	rlf	___lwdiv@divisor,f
  9280     14FD  0DF7               	rlf	___lwdiv@divisor+1,f
  9281     14FE  3EFF               	addlw	-1
  9282     14FF  1D03               	skipz
  9283     1500  2CFB               	goto	u3895
  9284     1501                     l4093:
  9285     1501  3001               	movlw	1
  9286     1502  07A0               	addwf	___lwdiv@counter,f
  9287     1503                     l4095:
  9288     1503  1FF7               	btfss	___lwdiv@divisor+1,7
  9289     1504  2D06               	goto	u3901
  9290     1505  2D07               	goto	u3900
  9291     1506                     u3901:
  9292     1506  2CFA               	goto	l4091
  9293     1507                     u3900:
  9294     1507                     l4097:
  9295     1507  3001               	movlw	1
  9296     1508                     u3915:
  9297     1508  1003               	clrc
  9298     1509  0DA1               	rlf	___lwdiv@quotient,f
  9299     150A  0DA2               	rlf	___lwdiv@quotient+1,f
  9300     150B  3EFF               	addlw	-1
  9301     150C  1D03               	skipz
  9302     150D  2D08               	goto	u3915
  9303     150E  0877               	movf	___lwdiv@divisor+1,w
  9304     150F  0279               	subwf	___lwdiv@dividend+1,w
  9305     1510  1D03               	skipz
  9306     1511  2D14               	goto	u3925
  9307     1512  0876               	movf	___lwdiv@divisor,w
  9308     1513  0278               	subwf	___lwdiv@dividend,w
  9309     1514                     u3925:
  9310     1514  1C03               	skipc
  9311     1515  2D17               	goto	u3921
  9312     1516  2D18               	goto	u3920
  9313     1517                     u3921:
  9314     1517  2D1F               	goto	l4103
  9315     1518                     u3920:
  9316     1518                     l4099:
  9317     1518  0876               	movf	___lwdiv@divisor,w
  9318     1519  02F8               	subwf	___lwdiv@dividend,f
  9319     151A  0877               	movf	___lwdiv@divisor+1,w
  9320     151B  1C03               	skipc
  9321     151C  03F9               	decf	___lwdiv@dividend+1,f
  9322     151D  02F9               	subwf	___lwdiv@dividend+1,f
  9323     151E                     l4101:
  9324     151E  1421               	bsf	___lwdiv@quotient,0
  9325     151F                     l4103:
  9326     151F  3001               	movlw	1
  9327     1520                     u3935:
  9328     1520  1003               	clrc
  9329     1521  0CF7               	rrf	___lwdiv@divisor+1,f
  9330     1522  0CF6               	rrf	___lwdiv@divisor,f
  9331     1523  3EFF               	addlw	-1
  9332     1524  1D03               	skipz
  9333     1525  2D20               	goto	u3935
  9334     1526                     l4105:
  9335     1526  3001               	movlw	1
  9336     1527  02A0               	subwf	___lwdiv@counter,f
  9337     1528  1D03               	btfss	3,2
  9338     1529  2D2B               	goto	u3941
  9339     152A  2D2C               	goto	u3940
  9340     152B                     u3941:
  9341     152B  2D07               	goto	l4097
  9342     152C                     u3940:
  9343     152C                     l4107:
  9344     152C  0822               	movf	___lwdiv@quotient+1,w
  9345     152D  00F7               	movwf	?___lwdiv+1
  9346     152E  0821               	movf	___lwdiv@quotient,w
  9347     152F  00F6               	movwf	?___lwdiv
  9348     1530                     l918:
  9349     1530  0008               	return
  9350     1531                     __end_of___lwdiv:
  9351                           
  9352                           	psect	text38
  9353     0CAC                     __ptext38:	
  9354 ;; *************** function _change_password *****************
  9355 ;; Defined at:
  9356 ;;		line 415 in file "car_black_box.c"
  9357 ;; Parameters:    Size  Location     Type
  9358 ;;  key             1    wreg     unsigned char 
  9359 ;;  reset_pwd       1    5[BANK0 ] unsigned char 
  9360 ;; Auto vars:     Size  Location     Type
  9361 ;;  key             1    9[BANK0 ] unsigned char 
  9362 ;; Return value:  Size  Location     Type
  9363 ;;                  1    wreg      unsigned char 
  9364 ;; Registers used:
  9365 ;;		wreg, fsr0l, fsr0h, status,2, status,0, btemp+1, pclath, cstack
  9366 ;; Tracked objects:
  9367 ;;		On entry : 0/0
  9368 ;;		On exit  : 0/0
  9369 ;;		Unchanged: 0/0
  9370 ;; Data sizes:     COMMON   BANK0   BANK1   BANK3   BANK2
  9371 ;;      Params:         0       1       0       0       0
  9372 ;;      Locals:         0       1       0       0       0
  9373 ;;      Temps:          0       3       0       0       0
  9374 ;;      Totals:         0       5       0       0       0
  9375 ;;Total ram usage:        5 bytes
  9376 ;; Hardware stack levels used: 1
  9377 ;; Hardware stack levels required when called: 5
  9378 ;; This function calls:
  9379 ;;		_clcd_print
  9380 ;;		_clcd_putch
  9381 ;;		_clear_screen
  9382 ;;		_ext_eeprom_str_write
  9383 ;;		_strncmp
  9384 ;;		_strncpy
  9385 ;; This function is called by:
  9386 ;;		_main
  9387 ;; This function uses a non-reentrant model
  9388 ;;
  9389                           
  9390     0CAC                     _change_password:	
  9391                           ;psect for function _change_password
  9392                           
  9393                           
  9394                           ;incstack = 0
  9395                           ; Regs used in _change_password: [wreg-fsr0h+status,2+status,0+btemp+1+pclath+cstack]
  9396                           ;change_password@key stored from wreg
  9397     0CAC  1283               	bcf	3,5	;RP0=0, select bank0
  9398     0CAD  1303               	bcf	3,6	;RP1=0, select bank0
  9399     0CAE  00A9               	movwf	change_password@key
  9400     0CAF                     l4449:
  9401                           
  9402                           ;car_black_box.c: 415: char change_password(unsigned char key, char reset_pwd);car_black
      +                          _box.c: 416: {;car_black_box.c: 417:     static char new_pwd[9];;car_black_box.c: 418:  
      +                             static int pwd_pos = 0;;car_black_box.c: 419:     static char pwd_changed = 0;;car_bl
      +                          ack_box.c: 420:     static unsigned char toggle_cursor = 0;;car_black_box.c: 421:     st
      +                          atic unsigned int blink_delay = 0;;car_black_box.c: 423:     if (blink_delay++ == 5)
  9403     0CAF  3001               	movlw	1
  9404     0CB0  1683               	bsf	3,5	;RP0=1, select bank1
  9405     0CB1  1303               	bcf	3,6	;RP1=0, select bank1
  9406     0CB2  07A2               	addwf	change_password@blink_delay^(0+128),f
  9407     0CB3  1803               	skipnc
  9408     0CB4  0AA3               	incf	(change_password@blink_delay+1)^(0+128),f
  9409     0CB5  3000               	movlw	0
  9410     0CB6  07A3               	addwf	(change_password@blink_delay+1)^(0+128),f
  9411     0CB7  3006               	movlw	6
  9412     0CB8  0622               	xorwf	change_password@blink_delay^(0+128),w
  9413     0CB9  0423               	iorwf	(change_password@blink_delay+1)^(0+128),w
  9414     0CBA  1D03               	btfss	3,2
  9415     0CBB  2CBD               	goto	u4321
  9416     0CBC  2CBE               	goto	u4320
  9417     0CBD                     u4321:
  9418     0CBD  2CCA               	goto	l4455
  9419     0CBE                     u4320:
  9420     0CBE                     l4451:
  9421                           
  9422                           ;car_black_box.c: 424:     {;car_black_box.c: 425:         blink_delay = 0;
  9423     0CBE  01A2               	clrf	change_password@blink_delay^(0+128)
  9424     0CBF  01A3               	clrf	(change_password@blink_delay+1)^(0+128)
  9425     0CC0                     l4453:
  9426                           
  9427                           ;car_black_box.c: 426:         toggle_cursor = !toggle_cursor;
  9428     0CC0  1283               	bcf	3,5	;RP0=0, select bank0
  9429     0CC1  1303               	bcf	3,6	;RP1=0, select bank0
  9430     0CC2  0854               	movf	change_password@toggle_cursor,w
  9431     0CC3  1903               	btfsc	3,2
  9432     0CC4  2CC6               	goto	u4331
  9433     0CC5  2CC8               	goto	u4330
  9434     0CC6                     u4331:
  9435     0CC6  3001               	movlw	1
  9436     0CC7  2CC9               	goto	u4340
  9437     0CC8                     u4330:
  9438     0CC8  3000               	movlw	0
  9439     0CC9                     u4340:
  9440     0CC9  00D4               	movwf	change_password@toggle_cursor
  9441     0CCA                     l4455:
  9442                           
  9443                           ;car_black_box.c: 429:     if (reset_pwd == 0x60)
  9444     0CCA  3060               	movlw	96
  9445     0CCB  1283               	bcf	3,5	;RP0=0, select bank0
  9446     0CCC  0625               	xorwf	change_password@reset_pwd,w
  9447     0CCD  1D03               	btfss	3,2
  9448     0CCE  2CD0               	goto	u4351
  9449     0CCF  2CD1               	goto	u4350
  9450     0CD0                     u4351:
  9451     0CD0  2CE7               	goto	l4465
  9452     0CD1                     u4350:
  9453     0CD1                     l4457:
  9454                           
  9455                           ;car_black_box.c: 430:     {;car_black_box.c: 431:         strncpy(new_pwd, "    ", 4);
  9456     0CD1  30AF               	movlw	(low (change_password@new_pwd| 0))& (0+255)
  9457     0CD2  00F2               	movwf	strncpy@d
  9458     0CD3  3052               	movlw	low ((STR_29+13)| (0+32768))
  9459     0CD4  00F3               	movwf	strncpy@s
  9460     0CD5  3087               	movlw	high ((STR_29+13)| (0+32768))
  9461     0CD6  00F4               	movwf	strncpy@s+1
  9462     0CD7  3004               	movlw	4
  9463     0CD8  00F5               	movwf	strncpy@n
  9464     0CD9  3000               	movlw	0
  9465     0CDA  00F6               	movwf	strncpy@n+1
  9466     0CDB  160A  118A  24A9  120A  158A  	fcall	_strncpy
  9467     0CE0                     l4459:
  9468                           
  9469                           ;car_black_box.c: 432:         pwd_pos = 0;
  9470     0CE0  1283               	bcf	3,5	;RP0=0, select bank0
  9471     0CE1  1303               	bcf	3,6	;RP1=0, select bank0
  9472     0CE2  01CA               	clrf	change_password@pwd_pos
  9473     0CE3  01CB               	clrf	change_password@pwd_pos+1
  9474     0CE4                     l4461:
  9475                           
  9476                           ;car_black_box.c: 433:         pwd_changed = 0;
  9477     0CE4  01FB               	clrf	change_password@pwd_changed
  9478     0CE5                     l4463:
  9479                           
  9480                           ;car_black_box.c: 434:         return_time = 5;
  9481     0CE5  3005               	movlw	5
  9482     0CE6  00DC               	movwf	_return_time
  9483     0CE7                     l4465:
  9484                           
  9485                           ;car_black_box.c: 437:     if (!return_time)
  9486     0CE7  085C               	movf	_return_time,w
  9487     0CE8  1D03               	btfss	3,2
  9488     0CE9  2CEB               	goto	u4361
  9489     0CEA  2CEC               	goto	u4360
  9490     0CEB                     u4361:
  9491     0CEB  2CEE               	goto	l4471
  9492     0CEC                     u4360:
  9493     0CEC                     l4467:
  9494                           
  9495                           ;car_black_box.c: 438:         return 0x0A;
  9496     0CEC  300A               	movlw	10
  9497     0CED  2E49               	goto	l161
  9498     0CEE                     l4471:
  9499                           
  9500                           ;car_black_box.c: 440:     if (pwd_changed)
  9501     0CEE  087B               	movf	change_password@pwd_changed,w
  9502     0CEF  1903               	btfsc	3,2
  9503     0CF0  2CF2               	goto	u4371
  9504     0CF1  2CF3               	goto	u4370
  9505     0CF2                     u4371:
  9506     0CF2  2CF5               	goto	l4477
  9507     0CF3                     u4370:
  9508     0CF3                     l4473:
  9509                           
  9510                           ;car_black_box.c: 441:         return 0x0D;
  9511     0CF3  300D               	movlw	13
  9512     0CF4  2E49               	goto	l161
  9513     0CF5                     l4477:
  9514                           
  9515                           ;car_black_box.c: 443:     if (pwd_pos < 4)
  9516     0CF5  084B               	movf	change_password@pwd_pos+1,w
  9517     0CF6  3A80               	xorlw	128
  9518     0CF7  00FF               	movwf	btemp+1
  9519     0CF8  3080               	movlw	128
  9520     0CF9  027F               	subwf	btemp+1,w
  9521     0CFA  1D03               	skipz
  9522     0CFB  2CFE               	goto	u4385
  9523     0CFC  3004               	movlw	4
  9524     0CFD  024A               	subwf	change_password@pwd_pos,w
  9525     0CFE                     u4385:
  9526     0CFE  1803               	skipnc
  9527     0CFF  2D01               	goto	u4381
  9528     0D00  2D02               	goto	u4380
  9529     0D01                     u4381:
  9530     0D01  2D28               	goto	l4487
  9531     0D02                     u4380:
  9532     0D02                     l4479:
  9533                           
  9534                           ;car_black_box.c: 444:     {;car_black_box.c: 445:         clcd_print("Enter new pwd:  "
      +                          , (0x80 + 0));
  9535     0D02  308B               	movlw	low (STR_27| (0+32768))
  9536     0D03  00F6               	movwf	clcd_print@str
  9537     0D04  3087               	movlw	high (STR_27| (0+32768))
  9538     0D05  00F7               	movwf	clcd_print@str+1
  9539     0D06  3080               	movlw	128
  9540     0D07  00F8               	movwf	clcd_print@addr
  9541     0D08  160A  118A  232F  120A  158A  	fcall	_clcd_print
  9542     0D0D                     l4481:
  9543                           
  9544                           ;car_black_box.c: 447:         if (toggle_cursor == 0)
  9545     0D0D  1283               	bcf	3,5	;RP0=0, select bank0
  9546     0D0E  1303               	bcf	3,6	;RP1=0, select bank0
  9547     0D0F  0854               	movf	change_password@toggle_cursor,w
  9548     0D10  1D03               	btfss	3,2
  9549     0D11  2D13               	goto	u4391
  9550     0D12  2D14               	goto	u4390
  9551     0D13                     u4391:
  9552     0D13  2D1E               	goto	l4485
  9553     0D14                     u4390:
  9554     0D14                     l4483:
  9555                           
  9556                           ;car_black_box.c: 448:         {;car_black_box.c: 449:             clcd_putch((unsigned 
      +                          char) 0xFF, (0xC0 + pwd_pos));
  9557     0D14  084A               	movf	change_password@pwd_pos,w
  9558     0D15  3EC0               	addlw	192
  9559     0D16  00A3               	movwf	clcd_putch@addr
  9560     0D17  30FF               	movlw	255
  9561     0D18  160A  118A  217C  120A  158A  	fcall	_clcd_putch
  9562                           
  9563                           ;car_black_box.c: 450:         }
  9564     0D1D  2DC4               	goto	l4525
  9565     0D1E                     l4485:
  9566                           
  9567                           ;car_black_box.c: 452:         {;car_black_box.c: 453:             clcd_putch(' ', (0xC0
      +                           + pwd_pos));
  9568     0D1E  084A               	movf	change_password@pwd_pos,w
  9569     0D1F  3EC0               	addlw	192
  9570     0D20  00A3               	movwf	clcd_putch@addr
  9571     0D21  3020               	movlw	32
  9572     0D22  160A  118A  217C  120A  158A  	fcall	_clcd_putch
  9573     0D27  2DC4               	goto	l4525
  9574     0D28                     l4487:
  9575     0D28  1283               	bcf	3,5	;RP0=0, select bank0
  9576     0D29  1303               	bcf	3,6	;RP1=0, select bank0
  9577     0D2A  084B               	movf	change_password@pwd_pos+1,w
  9578     0D2B  3A80               	xorlw	128
  9579     0D2C  00FF               	movwf	btemp+1
  9580     0D2D  3080               	movlw	128
  9581     0D2E  027F               	subwf	btemp+1,w
  9582     0D2F  1D03               	skipz
  9583     0D30  2D33               	goto	u4405
  9584     0D31  3004               	movlw	4
  9585     0D32  024A               	subwf	change_password@pwd_pos,w
  9586     0D33                     u4405:
  9587     0D33  1C03               	skipc
  9588     0D34  2D36               	goto	u4401
  9589     0D35  2D37               	goto	u4400
  9590     0D36                     u4401:
  9591     0D36  2DC4               	goto	l4525
  9592     0D37                     u4400:
  9593     0D37                     l4489:
  9594     0D37  1283               	bcf	3,5	;RP0=0, select bank0
  9595     0D38  1303               	bcf	3,6	;RP1=0, select bank0
  9596     0D39  084B               	movf	change_password@pwd_pos+1,w
  9597     0D3A  3A80               	xorlw	128
  9598     0D3B  00FF               	movwf	btemp+1
  9599     0D3C  3080               	movlw	128
  9600     0D3D  027F               	subwf	btemp+1,w
  9601     0D3E  1D03               	skipz
  9602     0D3F  2D42               	goto	u4415
  9603     0D40  3008               	movlw	8
  9604     0D41  024A               	subwf	change_password@pwd_pos,w
  9605     0D42                     u4415:
  9606     0D42  1803               	skipnc
  9607     0D43  2D45               	goto	u4411
  9608     0D44  2D46               	goto	u4410
  9609     0D45                     u4411:
  9610     0D45  2DC4               	goto	l4525
  9611     0D46                     u4410:
  9612     0D46                     l4491:
  9613                           
  9614                           ;car_black_box.c: 457:     {;car_black_box.c: 458:         clcd_print("Re-enter new pwd"
      +                          , (0x80 + 0));
  9615     0D46  30CF               	movlw	low (STR_28| (0+32768))
  9616     0D47  00F6               	movwf	clcd_print@str
  9617     0D48  3087               	movlw	high (STR_28| (0+32768))
  9618     0D49  00F7               	movwf	clcd_print@str+1
  9619     0D4A  3080               	movlw	128
  9620     0D4B  00F8               	movwf	clcd_print@addr
  9621     0D4C  160A  118A  232F  120A  158A  	fcall	_clcd_print
  9622     0D51                     l4493:
  9623                           
  9624                           ;car_black_box.c: 460:         if (toggle_cursor == 0)
  9625     0D51  1283               	bcf	3,5	;RP0=0, select bank0
  9626     0D52  1303               	bcf	3,6	;RP1=0, select bank0
  9627     0D53  0854               	movf	change_password@toggle_cursor,w
  9628     0D54  1D03               	btfss	3,2
  9629     0D55  2D57               	goto	u4421
  9630     0D56  2D58               	goto	u4420
  9631     0D57                     u4421:
  9632     0D57  2D62               	goto	l4497
  9633     0D58                     u4420:
  9634     0D58                     l4495:
  9635                           
  9636                           ;car_black_box.c: 461:         {;car_black_box.c: 462:             clcd_putch((unsigned 
      +                          char) 0xFF, (0xC0 + pwd_pos));
  9637     0D58  084A               	movf	change_password@pwd_pos,w
  9638     0D59  3EC0               	addlw	192
  9639     0D5A  00A3               	movwf	clcd_putch@addr
  9640     0D5B  30FF               	movlw	255
  9641     0D5C  160A  118A  217C  120A  158A  	fcall	_clcd_putch
  9642                           
  9643                           ;car_black_box.c: 463:         }
  9644     0D61  2DC4               	goto	l4525
  9645     0D62                     l4497:
  9646                           
  9647                           ;car_black_box.c: 465:         {;car_black_box.c: 466:             clcd_putch(' ', (0xC0
      +                           + pwd_pos));
  9648     0D62  084A               	movf	change_password@pwd_pos,w
  9649     0D63  3EC0               	addlw	192
  9650     0D64  00A3               	movwf	clcd_putch@addr
  9651     0D65  3020               	movlw	32
  9652     0D66  160A  118A  217C  120A  158A  	fcall	_clcd_putch
  9653     0D6B  2DC4               	goto	l4525
  9654     0D6C                     l4499:
  9655                           
  9656                           ;car_black_box.c: 473:             new_pwd[pwd_pos] = '0';
  9657     0D6C  084A               	movf	change_password@pwd_pos,w
  9658     0D6D  3EAF               	addlw	(low (change_password@new_pwd| 0))& (0+255)
  9659     0D6E  0084               	movwf	4
  9660     0D6F  3030               	movlw	48
  9661     0D70  1383               	bcf	3,7	;select IRP bank1
  9662     0D71  0080               	movwf	0
  9663     0D72                     l4501:
  9664                           
  9665                           ;car_black_box.c: 474:             clcd_putch('*', (0xC0 + pwd_pos));
  9666     0D72  084A               	movf	change_password@pwd_pos,w
  9667     0D73  3EC0               	addlw	192
  9668     0D74  00A3               	movwf	clcd_putch@addr
  9669     0D75  302A               	movlw	42
  9670     0D76  160A  118A  217C  120A  158A  	fcall	_clcd_putch
  9671     0D7B                     l4503:
  9672                           
  9673                           ;car_black_box.c: 475:             pwd_pos++;
  9674     0D7B  3001               	movlw	1
  9675     0D7C  1283               	bcf	3,5	;RP0=0, select bank0
  9676     0D7D  1303               	bcf	3,6	;RP1=0, select bank0
  9677     0D7E  07CA               	addwf	change_password@pwd_pos,f
  9678     0D7F  1803               	skipnc
  9679     0D80  0ACB               	incf	change_password@pwd_pos+1,f
  9680     0D81  3000               	movlw	0
  9681     0D82  07CB               	addwf	change_password@pwd_pos+1,f
  9682     0D83                     l4505:
  9683                           
  9684                           ;car_black_box.c: 476:             return_time = 5;
  9685     0D83  3005               	movlw	5
  9686     0D84  00DC               	movwf	_return_time
  9687     0D85                     l4507:
  9688                           
  9689                           ;car_black_box.c: 477:             if (pwd_pos == 4)
  9690     0D85  3004               	movlw	4
  9691     0D86  064A               	xorwf	change_password@pwd_pos,w
  9692     0D87  044B               	iorwf	change_password@pwd_pos+1,w
  9693     0D88  1D03               	btfss	3,2
  9694     0D89  2D8B               	goto	u4431
  9695     0D8A  2D8C               	goto	u4430
  9696     0D8B                     u4431:
  9697     0D8B  2DCE               	goto	l4527
  9698     0D8C                     u4430:
  9699     0D8C                     l4509:
  9700                           
  9701                           ;car_black_box.c: 478:                 clcd_print("                 ", (0xC0 + 0));
  9702     0D8C  3045               	movlw	low (STR_29| (0+32768))
  9703     0D8D  00F6               	movwf	clcd_print@str
  9704     0D8E  3087               	movlw	high (STR_29| (0+32768))
  9705     0D8F  00F7               	movwf	clcd_print@str+1
  9706     0D90  30C0               	movlw	192
  9707     0D91  00F8               	movwf	clcd_print@addr
  9708     0D92  160A  118A  232F  120A  158A  	fcall	_clcd_print
  9709     0D97  2DCE               	goto	l4527
  9710     0D98                     l4511:
  9711                           
  9712                           ;car_black_box.c: 482:             new_pwd[pwd_pos] = '1';
  9713     0D98  084A               	movf	change_password@pwd_pos,w
  9714     0D99  3EAF               	addlw	(low (change_password@new_pwd| 0))& (0+255)
  9715     0D9A  0084               	movwf	4
  9716     0D9B  3031               	movlw	49
  9717     0D9C  1383               	bcf	3,7	;select IRP bank1
  9718     0D9D  0080               	movwf	0
  9719     0D9E                     l4513:
  9720                           
  9721                           ;car_black_box.c: 483:             clcd_putch('*', (0xC0 + pwd_pos));
  9722     0D9E  084A               	movf	change_password@pwd_pos,w
  9723     0D9F  3EC0               	addlw	192
  9724     0DA0  00A3               	movwf	clcd_putch@addr
  9725     0DA1  302A               	movlw	42
  9726     0DA2  160A  118A  217C  120A  158A  	fcall	_clcd_putch
  9727     0DA7                     l4515:
  9728                           
  9729                           ;car_black_box.c: 484:             pwd_pos++;
  9730     0DA7  3001               	movlw	1
  9731     0DA8  1283               	bcf	3,5	;RP0=0, select bank0
  9732     0DA9  1303               	bcf	3,6	;RP1=0, select bank0
  9733     0DAA  07CA               	addwf	change_password@pwd_pos,f
  9734     0DAB  1803               	skipnc
  9735     0DAC  0ACB               	incf	change_password@pwd_pos+1,f
  9736     0DAD  3000               	movlw	0
  9737     0DAE  07CB               	addwf	change_password@pwd_pos+1,f
  9738     0DAF                     l4517:
  9739                           
  9740                           ;car_black_box.c: 485:             return_time = 5;
  9741     0DAF  3005               	movlw	5
  9742     0DB0  00DC               	movwf	_return_time
  9743     0DB1                     l4519:
  9744                           
  9745                           ;car_black_box.c: 486:             if (pwd_pos == 4)
  9746     0DB1  3004               	movlw	4
  9747     0DB2  064A               	xorwf	change_password@pwd_pos,w
  9748     0DB3  044B               	iorwf	change_password@pwd_pos+1,w
  9749     0DB4  1D03               	btfss	3,2
  9750     0DB5  2DB7               	goto	u4441
  9751     0DB6  2DB8               	goto	u4440
  9752     0DB7                     u4441:
  9753     0DB7  2DCE               	goto	l4527
  9754     0DB8                     u4440:
  9755     0DB8                     l4521:
  9756                           
  9757                           ;car_black_box.c: 487:                 clcd_print("                 ", (0xC0 + 0));
  9758     0DB8  3045               	movlw	low (STR_29| (0+32768))
  9759     0DB9  00F6               	movwf	clcd_print@str
  9760     0DBA  3087               	movlw	high (STR_29| (0+32768))
  9761     0DBB  00F7               	movwf	clcd_print@str+1
  9762     0DBC  30C0               	movlw	192
  9763     0DBD  00F8               	movwf	clcd_print@addr
  9764     0DBE  160A  118A  232F  120A  158A  	fcall	_clcd_print
  9765     0DC3  2DCE               	goto	l4527
  9766     0DC4                     l4525:
  9767     0DC4  1283               	bcf	3,5	;RP0=0, select bank0
  9768     0DC5  1303               	bcf	3,6	;RP1=0, select bank0
  9769     0DC6  0829               	movf	change_password@key,w
  9770                           
  9771                           ; Switch size 1, requested type "simple"
  9772                           ; Number of cases is 2, Range of values is 47 to 55
  9773                           ; switch strategies available:
  9774                           ; Name         Instructions Cycles
  9775                           ; simple_byte            7     4 (average)
  9776                           ; direct_byte           38    11 (fixed)
  9777                           ; jumptable            263     9 (fixed)
  9778                           ;	Chosen strategy is simple_byte
  9779     0DC7  3A2F               	xorlw	47	; case 47
  9780     0DC8  1903               	skipnz
  9781     0DC9  2D6C               	goto	l4499
  9782     0DCA  3A18               	xorlw	24	; case 55
  9783     0DCB  1903               	skipnz
  9784     0DCC  2D98               	goto	l4511
  9785     0DCD  2DCE               	goto	l4527
  9786     0DCE                     l4527:
  9787                           
  9788                           ;car_black_box.c: 491:     if (pwd_pos == 8)
  9789     0DCE  3008               	movlw	8
  9790     0DCF  1283               	bcf	3,5	;RP0=0, select bank0
  9791     0DD0  1303               	bcf	3,6	;RP1=0, select bank0
  9792     0DD1  064A               	xorwf	change_password@pwd_pos,w
  9793     0DD2  044B               	iorwf	change_password@pwd_pos+1,w
  9794     0DD3  1D03               	btfss	3,2
  9795     0DD4  2DD6               	goto	u4451
  9796     0DD5  2DD7               	goto	u4450
  9797     0DD6                     u4451:
  9798     0DD6  2CF3               	goto	l4473
  9799     0DD7                     u4450:
  9800     0DD7                     l4529:
  9801                           
  9802                           ;car_black_box.c: 492:     {;car_black_box.c: 493:         if (strncmp(new_pwd, &new_pwd
      +                          [4], 4) == 0)
  9803     0DD7  30AF               	movlw	(low (change_password@new_pwd| 0))& (0+255)
  9804     0DD8  00F2               	movwf	strncmp@l
  9805     0DD9  30B3               	movlw	(low ((change_password@new_pwd| 0+4)))& (0+255)
  9806     0DDA  00F3               	movwf	strncmp@r
  9807     0DDB  3004               	movlw	4
  9808     0DDC  00F4               	movwf	strncmp@n
  9809     0DDD  3000               	movlw	0
  9810     0DDE  00F5               	movwf	strncmp@n+1
  9811     0DDF  160A  118A  2531  120A  158A  	fcall	_strncmp
  9812     0DE4  0872               	movf	?_strncmp,w
  9813     0DE5  0473               	iorwf	?_strncmp+1,w
  9814     0DE6  1D03               	btfss	3,2
  9815     0DE7  2DE9               	goto	u4461
  9816     0DE8  2DEA               	goto	u4460
  9817     0DE9                     u4461:
  9818     0DE9  2E2D               	goto	l4553
  9819     0DEA                     u4460:
  9820     0DEA                     l4531:
  9821                           
  9822                           ;car_black_box.c: 494:         {;car_black_box.c: 495:             new_pwd[8] = 0;
  9823     0DEA  1683               	bsf	3,5	;RP0=1, select bank1
  9824     0DEB  1303               	bcf	3,6	;RP1=0, select bank1
  9825     0DEC  01B7               	clrf	(change_password@new_pwd^(0+128)+8)
  9826     0DED                     l4533:
  9827                           
  9828                           ;car_black_box.c: 496:             ext_eeprom_str_write(0x00, &new_pwd[4]);
  9829     0DED  30B3               	movlw	(low ((change_password@new_pwd| 0+4)))& (0+255)
  9830     0DEE  00F7               	movwf	ext_eeprom_str_write@data
  9831     0DEF  3000               	movlw	0
  9832     0DF0  00F8               	movwf	ext_eeprom_str_write@data+1
  9833     0DF1  3000               	movlw	0
  9834     0DF2  160A  118A  2283  120A  158A  	fcall	_ext_eeprom_str_write
  9835     0DF7                     l4535:
  9836                           
  9837                           ;car_black_box.c: 497:             pwd_pos++;
  9838     0DF7  3001               	movlw	1
  9839     0DF8  1283               	bcf	3,5	;RP0=0, select bank0
  9840     0DF9  1303               	bcf	3,6	;RP1=0, select bank0
  9841     0DFA  07CA               	addwf	change_password@pwd_pos,f
  9842     0DFB  1803               	skipnc
  9843     0DFC  0ACB               	incf	change_password@pwd_pos+1,f
  9844     0DFD  3000               	movlw	0
  9845     0DFE  07CB               	addwf	change_password@pwd_pos+1,f
  9846     0DFF                     l4537:
  9847                           
  9848                           ;car_black_box.c: 499:             clear_screen();
  9849     0DFF  160A  118A  2134  120A  158A  	fcall	_clear_screen
  9850     0E04                     l4539:
  9851                           
  9852                           ;car_black_box.c: 501:             clcd_print("Password changed", (0x80 + 0));
  9853     0E04  30BE               	movlw	low (STR_31| (0+32768))
  9854     0E05  00F6               	movwf	clcd_print@str
  9855     0E06  3087               	movlw	high (STR_31| (0+32768))
  9856     0E07  00F7               	movwf	clcd_print@str+1
  9857     0E08  3080               	movlw	128
  9858     0E09  00F8               	movwf	clcd_print@addr
  9859     0E0A  160A  118A  232F  120A  158A  	fcall	_clcd_print
  9860     0E0F                     l4541:
  9861                           
  9862                           ;car_black_box.c: 502:             clcd_print("successfully ", (0xC0 + 2));
  9863     0E0F  3030               	movlw	low (STR_32| (0+32768))
  9864     0E10  00F6               	movwf	clcd_print@str
  9865     0E11  3088               	movlw	high (STR_32| (0+32768))
  9866     0E12  00F7               	movwf	clcd_print@str+1
  9867     0E13  30C2               	movlw	194
  9868     0E14  00F8               	movwf	clcd_print@addr
  9869     0E15  160A  118A  232F  120A  158A  	fcall	_clcd_print
  9870     0E1A                     l4543:
  9871                           
  9872                           ;car_black_box.c: 504:             pwd_changed = 1;
  9873     0E1A  3001               	movlw	1
  9874     0E1B  00FB               	movwf	change_password@pwd_changed
  9875     0E1C                     l4545:
  9876                           
  9877                           ;car_black_box.c: 505:             _delay((unsigned long)((1000)*(20000000/4000.0)));
  9878     0E1C  301A               	movlw	26
  9879     0E1D  1283               	bcf	3,5	;RP0=0, select bank0
  9880     0E1E  1303               	bcf	3,6	;RP1=0, select bank0
  9881     0E1F  00A8               	movwf	??_change_password+2
  9882     0E20  305E               	movlw	94
  9883     0E21  00A7               	movwf	??_change_password+1
  9884     0E22  306D               	movlw	109
  9885     0E23  00A6               	movwf	??_change_password
  9886     0E24                     u5157:
  9887     0E24  0BA6               	decfsz	??_change_password,f
  9888     0E25  2E24               	goto	u5157
  9889     0E26  0BA7               	decfsz	??_change_password+1,f
  9890     0E27  2E24               	goto	u5157
  9891     0E28  0BA8               	decfsz	??_change_password+2,f
  9892     0E29  2E24               	goto	u5157
  9893     0E2A  2E2B               	nop2
  9894     0E2B                     l4547:
  9895                           
  9896                           ;car_black_box.c: 506:             return 0x0C;
  9897     0E2B  300C               	movlw	12
  9898     0E2C  2E49               	goto	l161
  9899     0E2D                     l4553:
  9900                           
  9901                           ;car_black_box.c: 509:         {;car_black_box.c: 511:             clear_screen();
  9902     0E2D  160A  118A  2134  120A  158A  	fcall	_clear_screen
  9903     0E32                     l4555:
  9904                           
  9905                           ;car_black_box.c: 513:             clcd_print("Password  change", (0x80 + 0));
  9906     0E32  30E0               	movlw	low (STR_33| (0+32768))
  9907     0E33  00F6               	movwf	clcd_print@str
  9908     0E34  3087               	movlw	high (STR_33| (0+32768))
  9909     0E35  00F7               	movwf	clcd_print@str+1
  9910     0E36  3080               	movlw	128
  9911     0E37  00F8               	movwf	clcd_print@addr
  9912     0E38  160A  118A  232F  120A  158A  	fcall	_clcd_print
  9913     0E3D                     l4557:
  9914                           
  9915                           ;car_black_box.c: 514:             clcd_print("failed", (0xC0 + 5));
  9916     0E3D  30C7               	movlw	low (STR_34| (0+32768))
  9917     0E3E  00F6               	movwf	clcd_print@str
  9918     0E3F  3088               	movlw	high (STR_34| (0+32768))
  9919     0E40  00F7               	movwf	clcd_print@str+1
  9920     0E41  30C5               	movlw	197
  9921     0E42  00F8               	movwf	clcd_print@addr
  9922     0E43  160A  118A  232F  120A  158A  	fcall	_clcd_print
  9923     0E48  2E1A               	goto	l4543
  9924     0E49                     l161:
  9925     0E49  0008               	return
  9926     0E4A                     __end_of_change_password:
  9927                           
  9928                           	psect	text39
  9929     14A9                     __ptext39:	
  9930 ;; *************** function _strncpy *****************
  9931 ;; Defined at:
  9932 ;;		line 3 in file "C:\Program Files\Microchip\xc8\v3.00\pic\sources\c99\common\strncpy.c"
  9933 ;; Parameters:    Size  Location     Type
  9934 ;;  d               1    2[COMMON] PTR unsigned char 
  9935 ;;		 -> change_password@new_pwd(9), log(11), 
  9936 ;;  s               2    3[COMMON] PTR const unsigned char 
  9937 ;;		 -> STR_56(3), STR_55(3), STR_54(3), STR_51(3), 
  9938 ;;		 -> main@event(3), STR_26(5), time(7), 
  9939 ;;  n               2    5[COMMON] unsigned int 
  9940 ;; Auto vars:     Size  Location     Type
  9941 ;;  cp              1    9[COMMON] PTR unsigned char 
  9942 ;;		 -> change_password@new_pwd(9), log(11), 
  9943 ;; Return value:  Size  Location     Type
  9944 ;;                  1    2[COMMON] PTR unsigned char 
  9945 ;; Registers used:
  9946 ;;		wreg, fsr0l, fsr0h, status,2, status,0, btemp+1, pclath
  9947 ;; Tracked objects:
  9948 ;;		On entry : 0/0
  9949 ;;		On exit  : 0/0
  9950 ;;		Unchanged: 0/0
  9951 ;; Data sizes:     COMMON   BANK0   BANK1   BANK3   BANK2
  9952 ;;      Params:         5       0       0       0       0
  9953 ;;      Locals:         1       0       0       0       0
  9954 ;;      Temps:          2       0       0       0       0
  9955 ;;      Totals:         8       0       0       0       0
  9956 ;;Total ram usage:        8 bytes
  9957 ;; Hardware stack levels used: 2
  9958 ;; Hardware stack levels required when called: 1
  9959 ;; This function calls:
  9960 ;;		Nothing
  9961 ;; This function is called by:
  9962 ;;		_log_car_event
  9963 ;;		_change_password
  9964 ;; This function uses a non-reentrant model
  9965 ;;
  9966                           
  9967     14A9                     _strncpy:	
  9968                           ;psect for function _strncpy
  9969                           
  9970     14A9                     l3891:	
  9971                           ;incstack = 0
  9972                           ; Regs used in _strncpy: [wreg-fsr0h+status,2+status,0+btemp+1+pclath]
  9973                           
  9974     14A9  0872               	movf	strncpy@d,w
  9975     14AA  00F9               	movwf	strncpy@cp
  9976     14AB  2CD1               	goto	l3899
  9977     14AC                     l3893:
  9978     14AC  3001               	movlw	1
  9979     14AD  02F5               	subwf	strncpy@n,f
  9980     14AE  3000               	movlw	0
  9981     14AF  1C03               	skipc
  9982     14B0  03F6               	decf	strncpy@n+1,f
  9983     14B1  02F6               	subwf	strncpy@n+1,f
  9984     14B2                     l3895:
  9985     14B2  0874               	movf	strncpy@s+1,w
  9986     14B3  00F8               	movwf	??_strncpy+1
  9987     14B4  0873               	movf	strncpy@s,w
  9988     14B5  00F7               	movwf	??_strncpy
  9989     14B6  0AF3               	incf	strncpy@s,f
  9990     14B7  1903               	skipnz
  9991     14B8  0AF4               	incf	strncpy@s+1,f
  9992     14B9  0878               	movf	??_strncpy+1,w
  9993     14BA  1283               	bcf	3,5	;RP0=0, select bank0
  9994     14BB  1303               	bcf	3,6	;RP1=0, select bank0
  9995     14BC  00FF               	movwf	btemp+1
  9996     14BD  0877               	movf	??_strncpy,w
  9997     14BE  0084               	movwf	4
  9998     14BF  160A  118A  2000  160A  118A  	fcall	stringtab
  9999     14C4  00FF               	movwf	btemp+1
 10000     14C5  0879               	movf	strncpy@cp,w
 10001     14C6  0AF9               	incf	strncpy@cp,f
 10002     14C7  0084               	movwf	4
 10003     14C8  087F               	movf	btemp+1,w
 10004     14C9  1383               	bcf	3,7	;select IRP bank0
 10005     14CA  0080               	movwf	0
 10006     14CB  0800               	movf	0,w
 10007     14CC  1D03               	btfss	3,2
 10008     14CD  2CCF               	goto	u3541
 10009     14CE  2CD0               	goto	u3540
 10010     14CF                     u3541:
 10011     14CF  2CD1               	goto	l3899
 10012     14D0                     u3540:
 10013     14D0  2CDE               	goto	l3905
 10014     14D1                     l3899:
 10015     14D1  0875               	movf	strncpy@n,w
 10016     14D2  0476               	iorwf	strncpy@n+1,w
 10017     14D3  1D03               	btfss	3,2
 10018     14D4  2CD6               	goto	u3551
 10019     14D5  2CD7               	goto	u3550
 10020     14D6                     u3551:
 10021     14D6  2CAC               	goto	l3893
 10022     14D7                     u3550:
 10023     14D7  2CDE               	goto	l3905
 10024     14D8                     l3901:
 10025     14D8  0879               	movf	strncpy@cp,w
 10026     14D9  0084               	movwf	4
 10027     14DA  1383               	bcf	3,7	;select IRP bank0
 10028     14DB  0180               	clrf	0
 10029     14DC                     l3903:
 10030     14DC  3001               	movlw	1
 10031     14DD  07F9               	addwf	strncpy@cp,f
 10032     14DE                     l3905:
 10033     14DE  3001               	movlw	1
 10034     14DF  02F5               	subwf	strncpy@n,f
 10035     14E0  3000               	movlw	0
 10036     14E1  1C03               	skipc
 10037     14E2  03F6               	decf	strncpy@n+1,f
 10038     14E3  02F6               	subwf	strncpy@n+1,f
 10039     14E4  0A75               	incf	strncpy@n,w
 10040     14E5  1D03               	skipz
 10041     14E6  2CEB               	goto	u3561
 10042     14E7  0A76               	incf	strncpy@n+1,w
 10043     14E8  1D03               	btfss	3,2
 10044     14E9  2CEB               	goto	u3561
 10045     14EA  2CEC               	goto	u3560
 10046     14EB                     u3561:
 10047     14EB  2CD8               	goto	l3901
 10048     14EC                     u3560:
 10049     14EC                     l1119:
 10050     14EC  0008               	return
 10051     14ED                     __end_of_strncpy:
 10052                           
 10053                           	psect	text40
 10054     1531                     __ptext40:	
 10055 ;; *************** function _strncmp *****************
 10056 ;; Defined at:
 10057 ;;		line 3 in file "C:\Program Files\Microchip\xc8\v3.00\pic\sources\c99\common\strncmp.c"
 10058 ;; Parameters:    Size  Location     Type
 10059 ;;  l               1    2[COMMON] PTR const unsigned char 
 10060 ;;		 -> change_password@new_pwd(9), login@spassword(4), 
 10061 ;;  r               1    3[COMMON] PTR const unsigned char 
 10062 ;;		 -> change_password@new_pwd(9), login@npassword(4), 
 10063 ;;  n               2    4[COMMON] unsigned int 
 10064 ;; Auto vars:     Size  Location     Type
 10065 ;;		None
 10066 ;; Return value:  Size  Location     Type
 10067 ;;                  2    2[COMMON] int 
 10068 ;; Registers used:
 10069 ;;		wreg, fsr0l, fsr0h, status,2, status,0
 10070 ;; Tracked objects:
 10071 ;;		On entry : 0/0
 10072 ;;		On exit  : 0/0
 10073 ;;		Unchanged: 0/0
 10074 ;; Data sizes:     COMMON   BANK0   BANK1   BANK3   BANK2
 10075 ;;      Params:         4       0       0       0       0
 10076 ;;      Locals:         0       0       0       0       0
 10077 ;;      Temps:          2       0       0       0       0
 10078 ;;      Totals:         6       0       0       0       0
 10079 ;;Total ram usage:        6 bytes
 10080 ;; Hardware stack levels used: 1
 10081 ;; Hardware stack levels required when called: 1
 10082 ;; This function calls:
 10083 ;;		Nothing
 10084 ;; This function is called by:
 10085 ;;		_login
 10086 ;;		_change_password
 10087 ;; This function uses a non-reentrant model
 10088 ;;
 10089                           
 10090     1531                     _strncmp:	
 10091                           ;psect for function _strncmp
 10092                           
 10093     1531                     l3931:	
 10094                           ;incstack = 0
 10095                           ; Regs used in _strncmp: [wreg-fsr0h+status,2+status,0]
 10096                           
 10097     1531  3001               	movlw	1
 10098     1532  02F4               	subwf	strncmp@n,f
 10099     1533  3000               	movlw	0
 10100     1534  1C03               	skipc
 10101     1535  03F5               	decf	strncmp@n+1,f
 10102     1536  02F5               	subwf	strncmp@n+1,f
 10103     1537  0A74               	incf	strncmp@n,w
 10104     1538  1D03               	skipz
 10105     1539  2D3E               	goto	u3571
 10106     153A  0A75               	incf	strncmp@n+1,w
 10107     153B  1D03               	btfss	3,2
 10108     153C  2D3E               	goto	u3571
 10109     153D  2D3F               	goto	u3570
 10110     153E                     u3571:
 10111     153E  2D4C               	goto	l3941
 10112     153F                     u3570:
 10113     153F                     l3933:
 10114     153F  01F2               	clrf	?_strncmp
 10115     1540  01F3               	clrf	?_strncmp+1
 10116     1541  2D7B               	goto	l1104
 10117     1542                     l3937:
 10118     1542  3001               	movlw	1
 10119     1543  07F2               	addwf	strncmp@l,f
 10120     1544  3001               	movlw	1
 10121     1545  07F3               	addwf	strncmp@r,f
 10122     1546                     l3939:
 10123     1546  3001               	movlw	1
 10124     1547  02F4               	subwf	strncmp@n,f
 10125     1548  3000               	movlw	0
 10126     1549  1C03               	skipc
 10127     154A  03F5               	decf	strncmp@n+1,f
 10128     154B  02F5               	subwf	strncmp@n+1,f
 10129     154C                     l3941:
 10130     154C  0872               	movf	strncmp@l,w
 10131     154D  0084               	movwf	4
 10132     154E  1383               	bcf	3,7	;select IRP bank0
 10133     154F  0800               	movf	0,w
 10134     1550  1903               	btfsc	3,2
 10135     1551  2D53               	goto	u3581
 10136     1552  2D54               	goto	u3580
 10137     1553                     u3581:
 10138     1553  2D6D               	goto	l3949
 10139     1554                     u3580:
 10140     1554                     l3943:
 10141     1554  0873               	movf	strncmp@r,w
 10142     1555  0084               	movwf	4
 10143     1556  0800               	movf	0,w
 10144     1557  1903               	btfsc	3,2
 10145     1558  2D5A               	goto	u3591
 10146     1559  2D5B               	goto	u3590
 10147     155A                     u3591:
 10148     155A  2D6D               	goto	l3949
 10149     155B                     u3590:
 10150     155B                     l3945:
 10151     155B  0874               	movf	strncmp@n,w
 10152     155C  0475               	iorwf	strncmp@n+1,w
 10153     155D  1903               	btfsc	3,2
 10154     155E  2D60               	goto	u3601
 10155     155F  2D61               	goto	u3600
 10156     1560                     u3601:
 10157     1560  2D6D               	goto	l3949
 10158     1561                     u3600:
 10159     1561                     l3947:
 10160     1561  0873               	movf	strncmp@r,w
 10161     1562  0084               	movwf	4
 10162     1563  0800               	movf	0,w
 10163     1564  00F6               	movwf	??_strncmp
 10164     1565  0872               	movf	strncmp@l,w
 10165     1566  0084               	movwf	4
 10166     1567  0800               	movf	0,w
 10167     1568  0676               	xorwf	??_strncmp,w
 10168     1569  1903               	skipnz
 10169     156A  2D6C               	goto	u3611
 10170     156B  2D6D               	goto	u3610
 10171     156C                     u3611:
 10172     156C  2D42               	goto	l3937
 10173     156D                     u3610:
 10174     156D                     l3949:
 10175     156D  0873               	movf	strncmp@r,w
 10176     156E  0084               	movwf	4
 10177     156F  0800               	movf	0,w
 10178     1570  00F6               	movwf	??_strncmp
 10179     1571  0872               	movf	strncmp@l,w
 10180     1572  0084               	movwf	4
 10181     1573  0800               	movf	0,w
 10182     1574  00F7               	movwf	??_strncmp+1
 10183     1575  0876               	movf	??_strncmp,w
 10184     1576  0277               	subwf	??_strncmp+1,w
 10185     1577  00F2               	movwf	?_strncmp
 10186     1578  01F3               	clrf	?_strncmp+1
 10187     1579  1C03               	skipc
 10188     157A  03F3               	decf	?_strncmp+1,f
 10189     157B                     l1104:
 10190     157B  0008               	return
 10191     157C                     __end_of_strncmp:
 10192                           
 10193                           	psect	text41
 10194     1283                     __ptext41:	
 10195 ;; *************** function _ext_eeprom_str_write *****************
 10196 ;; Defined at:
 10197 ;;		line 35 in file "eeprom.c"
 10198 ;; Parameters:    Size  Location     Type
 10199 ;;  memory_loc      1    wreg     unsigned char 
 10200 ;;  data            2    7[COMMON] PTR unsigned char 
 10201 ;;		 -> STR_47(5), change_password@new_pwd(9), log(11), 
 10202 ;; Auto vars:     Size  Location     Type
 10203 ;;  memory_loc      1    9[COMMON] unsigned char 
 10204 ;; Return value:  Size  Location     Type
 10205 ;;                  1    wreg      void 
 10206 ;; Registers used:
 10207 ;;		wreg, fsr0l, fsr0h, status,2, status,0, btemp+1, pclath, cstack
 10208 ;; Tracked objects:
 10209 ;;		On entry : 0/0
 10210 ;;		On exit  : 0/0
 10211 ;;		Unchanged: 0/0
 10212 ;; Data sizes:     COMMON   BANK0   BANK1   BANK3   BANK2
 10213 ;;      Params:         2       0       0       0       0
 10214 ;;      Locals:         1       0       0       0       0
 10215 ;;      Temps:          0       0       0       0       0
 10216 ;;      Totals:         3       0       0       0       0
 10217 ;;Total ram usage:        3 bytes
 10218 ;; Hardware stack levels used: 1
 10219 ;; Hardware stack levels required when called: 4
 10220 ;; This function calls:
 10221 ;;		_ext_eeprom_write
 10222 ;; This function is called by:
 10223 ;;		_log_event
 10224 ;;		_change_password
 10225 ;;		_main
 10226 ;; This function uses a non-reentrant model
 10227 ;;
 10228                           
 10229     1283                     _ext_eeprom_str_write:	
 10230                           ;psect for function _ext_eeprom_str_write
 10231                           
 10232                           
 10233                           ;incstack = 0
 10234                           ; Regs used in _ext_eeprom_str_write: [wreg-fsr0h+status,2+status,0+btemp+1+pclath+cstac
      +                          k]
 10235                           ;ext_eeprom_str_write@memory_loc stored from wreg
 10236     1283  00F9               	movwf	ext_eeprom_str_write@memory_loc
 10237     1284                     l3791:
 10238                           
 10239                           ;eeprom.c: 35: void ext_eeprom_str_write(unsigned char memory_loc, char *data);eeprom.c:
      +                           36: {;eeprom.c: 37:     while (*data != 0)
 10240     1284  2A9D               	goto	l3799
 10241     1285                     l3793:
 10242                           
 10243                           ;eeprom.c: 38:     {;eeprom.c: 39:         ext_eeprom_write(memory_loc, *data);
 10244     1285  0878               	movf	ext_eeprom_str_write@data+1,w
 10245     1286  00FF               	movwf	btemp+1
 10246     1287  0877               	movf	ext_eeprom_str_write@data,w
 10247     1288  0084               	movwf	4
 10248     1289  160A  118A  2000  160A  118A  	fcall	stringtab
 10249     128E  00F3               	movwf	ext_eeprom_write@data
 10250     128F  0879               	movf	ext_eeprom_str_write@memory_loc,w
 10251     1290  160A  118A  225C  160A  118A  	fcall	_ext_eeprom_write
 10252     1295                     l3795:
 10253                           
 10254                           ;eeprom.c: 40:         data++;
 10255     1295  3001               	movlw	1
 10256     1296  07F7               	addwf	ext_eeprom_str_write@data,f
 10257     1297  1803               	skipnc
 10258     1298  0AF8               	incf	ext_eeprom_str_write@data+1,f
 10259     1299  3000               	movlw	0
 10260     129A  07F8               	addwf	ext_eeprom_str_write@data+1,f
 10261     129B                     l3797:
 10262                           
 10263                           ;eeprom.c: 41:         memory_loc++;
 10264     129B  3001               	movlw	1
 10265     129C  07F9               	addwf	ext_eeprom_str_write@memory_loc,f
 10266     129D                     l3799:
 10267                           
 10268                           ;eeprom.c: 37:     while (*data != 0)
 10269     129D  0878               	movf	ext_eeprom_str_write@data+1,w
 10270     129E  1283               	bcf	3,5	;RP0=0, select bank0
 10271     129F  1303               	bcf	3,6	;RP1=0, select bank0
 10272     12A0  00FF               	movwf	btemp+1
 10273     12A1  0877               	movf	ext_eeprom_str_write@data,w
 10274     12A2  0084               	movwf	4
 10275     12A3  160A  118A  2000  160A  118A  	fcall	stringtab
 10276     12A8  3A00               	xorlw	0
 10277     12A9  1D03               	skipz
 10278     12AA  2AAC               	goto	u3401
 10279     12AB  2AAD               	goto	u3400
 10280     12AC                     u3401:
 10281     12AC  2A85               	goto	l3793
 10282     12AD                     u3400:
 10283     12AD                     l312:
 10284     12AD  0008               	return
 10285     12AE                     __end_of_ext_eeprom_str_write:
 10286                           
 10287                           	psect	text42
 10288     125C                     __ptext42:	
 10289 ;; *************** function _ext_eeprom_write *****************
 10290 ;; Defined at:
 10291 ;;		line 24 in file "eeprom.c"
 10292 ;; Parameters:    Size  Location     Type
 10293 ;;  memory_loc      1    wreg     unsigned char 
 10294 ;;  data            1    3[COMMON] unsigned char 
 10295 ;; Auto vars:     Size  Location     Type
 10296 ;;  memory_loc      1    6[COMMON] unsigned char 
 10297 ;; Return value:  Size  Location     Type
 10298 ;;                  1    wreg      void 
 10299 ;; Registers used:
 10300 ;;		wreg, status,2, status,0, pclath, cstack
 10301 ;; Tracked objects:
 10302 ;;		On entry : 0/0
 10303 ;;		On exit  : 0/0
 10304 ;;		Unchanged: 0/0
 10305 ;; Data sizes:     COMMON   BANK0   BANK1   BANK3   BANK2
 10306 ;;      Params:         1       0       0       0       0
 10307 ;;      Locals:         1       0       0       0       0
 10308 ;;      Temps:          2       0       0       0       0
 10309 ;;      Totals:         4       0       0       0       0
 10310 ;;Total ram usage:        4 bytes
 10311 ;; Hardware stack levels used: 1
 10312 ;; Hardware stack levels required when called: 3
 10313 ;; This function calls:
 10314 ;;		_i2c_start
 10315 ;;		_i2c_stop
 10316 ;;		_i2c_write
 10317 ;; This function is called by:
 10318 ;;		_ext_eeprom_str_write
 10319 ;; This function uses a non-reentrant model
 10320 ;;
 10321                           
 10322     125C                     _ext_eeprom_write:	
 10323                           ;psect for function _ext_eeprom_write
 10324                           
 10325                           
 10326                           ;incstack = 0
 10327                           ; Regs used in _ext_eeprom_write: [wreg+status,2+status,0+pclath+cstack]
 10328                           ;ext_eeprom_write@memory_loc stored from wreg
 10329     125C  00F6               	movwf	ext_eeprom_write@memory_loc
 10330     125D                     l3769:
 10331                           
 10332                           ;eeprom.c: 24: void ext_eeprom_write(unsigned char memory_loc, unsigned char data);eepro
      +                          m.c: 25: {;eeprom.c: 26:     i2c_start();
 10333     125D  160A  118A  20DC  160A  118A  	fcall	_i2c_start
 10334                           
 10335                           ;eeprom.c: 27:     i2c_write(0xA0);
 10336     1262  30A0               	movlw	160
 10337     1263  160A  118A  20EE  160A  118A  	fcall	_i2c_write
 10338                           
 10339                           ;eeprom.c: 28:     i2c_write(memory_loc);
 10340     1268  0876               	movf	ext_eeprom_write@memory_loc,w
 10341     1269  160A  118A  20EE  160A  118A  	fcall	_i2c_write
 10342                           
 10343                           ;eeprom.c: 29:     i2c_write(data);
 10344     126E  0873               	movf	ext_eeprom_write@data,w
 10345     126F  160A  118A  20EE  160A  118A  	fcall	_i2c_write
 10346                           
 10347                           ;eeprom.c: 30:     i2c_stop();
 10348     1274  160A  118A  20E5  160A  118A  	fcall	_i2c_stop
 10349     1279                     l3771:
 10350                           
 10351                           ;eeprom.c: 32:     _delay((unsigned long)((3)*(20000000/4000.0)));
 10352     1279  3014               	movlw	20
 10353     127A  00F5               	movwf	??_ext_eeprom_write+1
 10354     127B  3079               	movlw	121
 10355     127C  00F4               	movwf	??_ext_eeprom_write
 10356     127D                     u5167:
 10357     127D  0BF4               	decfsz	??_ext_eeprom_write,f
 10358     127E  2A7D               	goto	u5167
 10359     127F  0BF5               	decfsz	??_ext_eeprom_write+1,f
 10360     1280  2A7D               	goto	u5167
 10361     1281  2A82               	nop2
 10362     1282                     l306:
 10363     1282  0008               	return
 10364     1283                     __end_of_ext_eeprom_write:
 10365                           
 10366                           	psect	text43
 10367     10EE                     __ptext43:	
 10368 ;; *************** function _i2c_write *****************
 10369 ;; Defined at:
 10370 ;;		line 69 in file "i2c.c"
 10371 ;; Parameters:    Size  Location     Type
 10372 ;;  data            1    wreg     unsigned char 
 10373 ;; Auto vars:     Size  Location     Type
 10374 ;;  data            1    2[COMMON] unsigned char 
 10375 ;; Return value:  Size  Location     Type
 10376 ;;                  2  273[None  ] int 
 10377 ;; Registers used:
 10378 ;;		wreg, status,2, status,0, pclath, cstack
 10379 ;; Tracked objects:
 10380 ;;		On entry : 0/0
 10381 ;;		On exit  : 0/0
 10382 ;;		Unchanged: 0/0
 10383 ;; Data sizes:     COMMON   BANK0   BANK1   BANK3   BANK2
 10384 ;;      Params:         0       0       0       0       0
 10385 ;;      Locals:         1       0       0       0       0
 10386 ;;      Temps:          0       0       0       0       0
 10387 ;;      Totals:         1       0       0       0       0
 10388 ;;Total ram usage:        1 bytes
 10389 ;; Hardware stack levels used: 1
 10390 ;; Hardware stack levels required when called: 2
 10391 ;; This function calls:
 10392 ;;		_i2c_wait_for_idle
 10393 ;; This function is called by:
 10394 ;;		_read_ds1307
 10395 ;;		_write_ds1307
 10396 ;;		_ext_eeprom_read
 10397 ;;		_ext_eeprom_write
 10398 ;; This function uses a non-reentrant model
 10399 ;;
 10400                           
 10401     10EE                     _i2c_write:	
 10402                           ;psect for function _i2c_write
 10403                           
 10404                           
 10405                           ;incstack = 0
 10406                           ; Regs used in _i2c_write: [wreg+status,2+status,0+pclath+cstack]
 10407                           ;i2c_write@data stored from wreg
 10408     10EE  00F2               	movwf	i2c_write@data
 10409     10EF                     l3731:
 10410                           
 10411                           ;i2c.c: 69: int i2c_write(unsigned char data);i2c.c: 70: {;i2c.c: 71:     i2c_wait_for_i
      +                          dle();
 10412     10EF  160A  118A  211A  160A  118A  	fcall	_i2c_wait_for_idle
 10413     10F4                     l3733:
 10414                           
 10415                           ;i2c.c: 72:     SSPBUF = data;
 10416     10F4  0872               	movf	i2c_write@data,w
 10417     10F5  1283               	bcf	3,5	;RP0=0, select bank0
 10418     10F6  1303               	bcf	3,6	;RP1=0, select bank0
 10419     10F7  0093               	movwf	19	;volatile
 10420     10F8                     l3735:
 10421     10F8                     l364:	
 10422                           ;i2c.c: 74:     return !ACKSTAT;;	Return value of _i2c_write is never used
 10423                           
 10424     10F8  0008               	return
 10425     10F9                     __end_of_i2c_write:
 10426                           
 10427                           	psect	text44
 10428     10E5                     __ptext44:	
 10429 ;; *************** function _i2c_stop *****************
 10430 ;; Defined at:
 10431 ;;		line 39 in file "i2c.c"
 10432 ;; Parameters:    Size  Location     Type
 10433 ;;		None
 10434 ;; Auto vars:     Size  Location     Type
 10435 ;;		None
 10436 ;; Return value:  Size  Location     Type
 10437 ;;                  1    wreg      void 
 10438 ;; Registers used:
 10439 ;;		wreg, status,2, status,0, pclath, cstack
 10440 ;; Tracked objects:
 10441 ;;		On entry : 0/0
 10442 ;;		On exit  : 0/0
 10443 ;;		Unchanged: 0/0
 10444 ;; Data sizes:     COMMON   BANK0   BANK1   BANK3   BANK2
 10445 ;;      Params:         0       0       0       0       0
 10446 ;;      Locals:         0       0       0       0       0
 10447 ;;      Temps:          0       0       0       0       0
 10448 ;;      Totals:         0       0       0       0       0
 10449 ;;Total ram usage:        0 bytes
 10450 ;; Hardware stack levels used: 1
 10451 ;; Hardware stack levels required when called: 2
 10452 ;; This function calls:
 10453 ;;		_i2c_wait_for_idle
 10454 ;; This function is called by:
 10455 ;;		_read_ds1307
 10456 ;;		_write_ds1307
 10457 ;;		_ext_eeprom_read
 10458 ;;		_ext_eeprom_write
 10459 ;;		_i2c_rep_start
 10460 ;; This function uses a non-reentrant model
 10461 ;;
 10462                           
 10463     10E5                     _i2c_stop:	
 10464                           ;psect for function _i2c_stop
 10465                           
 10466     10E5                     l3727:	
 10467                           ;incstack = 0
 10468                           ; Regs used in _i2c_stop: [wreg+status,2+status,0+pclath+cstack]
 10469                           
 10470                           
 10471                           ;i2c.c: 41:     i2c_wait_for_idle();
 10472     10E5  160A  118A  211A  160A  118A  	fcall	_i2c_wait_for_idle
 10473     10EA                     l3729:
 10474                           
 10475                           ;i2c.c: 42:     PEN = 1;
 10476     10EA  1683               	bsf	3,5	;RP0=1, select bank1
 10477     10EB  1303               	bcf	3,6	;RP1=0, select bank1
 10478     10EC  1511               	bsf	17,2	;volatile
 10479     10ED                     l356:
 10480     10ED  0008               	return
 10481     10EE                     __end_of_i2c_stop:
 10482                           
 10483                           	psect	text45
 10484     10DC                     __ptext45:	
 10485 ;; *************** function _i2c_start *****************
 10486 ;; Defined at:
 10487 ;;		line 26 in file "i2c.c"
 10488 ;; Parameters:    Size  Location     Type
 10489 ;;		None
 10490 ;; Auto vars:     Size  Location     Type
 10491 ;;		None
 10492 ;; Return value:  Size  Location     Type
 10493 ;;                  1    wreg      void 
 10494 ;; Registers used:
 10495 ;;		wreg, status,2, status,0, pclath, cstack
 10496 ;; Tracked objects:
 10497 ;;		On entry : 0/0
 10498 ;;		On exit  : 0/0
 10499 ;;		Unchanged: 0/0
 10500 ;; Data sizes:     COMMON   BANK0   BANK1   BANK3   BANK2
 10501 ;;      Params:         0       0       0       0       0
 10502 ;;      Locals:         0       0       0       0       0
 10503 ;;      Temps:          0       0       0       0       0
 10504 ;;      Totals:         0       0       0       0       0
 10505 ;;Total ram usage:        0 bytes
 10506 ;; Hardware stack levels used: 1
 10507 ;; Hardware stack levels required when called: 2
 10508 ;; This function calls:
 10509 ;;		_i2c_wait_for_idle
 10510 ;; This function is called by:
 10511 ;;		_read_ds1307
 10512 ;;		_write_ds1307
 10513 ;;		_ext_eeprom_read
 10514 ;;		_ext_eeprom_write
 10515 ;;		_i2c_rep_start
 10516 ;; This function uses a non-reentrant model
 10517 ;;
 10518                           
 10519     10DC                     _i2c_start:	
 10520                           ;psect for function _i2c_start
 10521                           
 10522     10DC                     l3723:	
 10523                           ;incstack = 0
 10524                           ; Regs used in _i2c_start: [wreg+status,2+status,0+pclath+cstack]
 10525                           
 10526                           
 10527                           ;i2c.c: 28:     i2c_wait_for_idle();
 10528     10DC  160A  118A  211A  160A  118A  	fcall	_i2c_wait_for_idle
 10529     10E1                     l3725:
 10530                           
 10531                           ;i2c.c: 29:     SEN = 1;
 10532     10E1  1683               	bsf	3,5	;RP0=1, select bank1
 10533     10E2  1303               	bcf	3,6	;RP1=0, select bank1
 10534     10E3  1411               	bsf	17,0	;volatile
 10535     10E4                     l350:
 10536     10E4  0008               	return
 10537     10E5                     __end_of_i2c_start:
 10538                           
 10539                           	psect	text46
 10540     111A                     __ptext46:	
 10541 ;; *************** function _i2c_wait_for_idle *****************
 10542 ;; Defined at:
 10543 ;;		line 20 in file "i2c.c"
 10544 ;; Parameters:    Size  Location     Type
 10545 ;;		None
 10546 ;; Auto vars:     Size  Location     Type
 10547 ;;		None
 10548 ;; Return value:  Size  Location     Type
 10549 ;;                  1    wreg      void 
 10550 ;; Registers used:
 10551 ;;		wreg, status,2
 10552 ;; Tracked objects:
 10553 ;;		On entry : 0/0
 10554 ;;		On exit  : 0/0
 10555 ;;		Unchanged: 0/0
 10556 ;; Data sizes:     COMMON   BANK0   BANK1   BANK3   BANK2
 10557 ;;      Params:         0       0       0       0       0
 10558 ;;      Locals:         0       0       0       0       0
 10559 ;;      Temps:          0       0       0       0       0
 10560 ;;      Totals:         0       0       0       0       0
 10561 ;;Total ram usage:        0 bytes
 10562 ;; Hardware stack levels used: 1
 10563 ;; Hardware stack levels required when called: 1
 10564 ;; This function calls:
 10565 ;;		Nothing
 10566 ;; This function is called by:
 10567 ;;		_i2c_start
 10568 ;;		_i2c_stop
 10569 ;;		_i2c_read
 10570 ;;		_i2c_write
 10571 ;; This function uses a non-reentrant model
 10572 ;;
 10573                           
 10574     111A                     _i2c_wait_for_idle:	
 10575                           ;psect for function _i2c_wait_for_idle
 10576                           
 10577     111A                     l3719:	
 10578                           ;incstack = 0
 10579                           ; Regs used in _i2c_wait_for_idle: [wreg+status,2]
 10580                           
 10581     111A                     l344:	
 10582                           ;i2c.c: 23:     while (R_nW || (SSPCON2 & 0x1F));
 10583                           
 10584     111A  1683               	bsf	3,5	;RP0=1, select bank1
 10585     111B  1303               	bcf	3,6	;RP1=0, select bank1
 10586     111C  1914               	btfsc	20,2	;volatile
 10587     111D  291F               	goto	u3321
 10588     111E  2920               	goto	u3320
 10589     111F                     u3321:
 10590     111F  291A               	goto	l344
 10591     1120                     u3320:
 10592     1120                     l3721:
 10593     1120  0811               	movf	17,w	;volatile
 10594     1121  391F               	andlw	31
 10595     1122  1D03               	btfss	3,2
 10596     1123  2925               	goto	u3331
 10597     1124  2926               	goto	u3330
 10598     1125                     u3331:
 10599     1125  291A               	goto	l344
 10600     1126                     u3330:
 10601     1126                     l347:
 10602     1126  0008               	return
 10603     1127                     __end_of_i2c_wait_for_idle:
 10604                           
 10605                           	psect	text47
 10606     1134                     __ptext47:	
 10607 ;; *************** function _clear_screen *****************
 10608 ;; Defined at:
 10609 ;;		line 105 in file "car_black_box.c"
 10610 ;; Parameters:    Size  Location     Type
 10611 ;;		None
 10612 ;; Auto vars:     Size  Location     Type
 10613 ;;		None
 10614 ;; Return value:  Size  Location     Type
 10615 ;;                  1    wreg      void 
 10616 ;; Registers used:
 10617 ;;		wreg, status,2, status,0, pclath, cstack
 10618 ;; Tracked objects:
 10619 ;;		On entry : 0/0
 10620 ;;		On exit  : 0/0
 10621 ;;		Unchanged: 0/0
 10622 ;; Data sizes:     COMMON   BANK0   BANK1   BANK3   BANK2
 10623 ;;      Params:         0       0       0       0       0
 10624 ;;      Locals:         0       0       0       0       0
 10625 ;;      Temps:          2       0       0       0       0
 10626 ;;      Totals:         2       0       0       0       0
 10627 ;;Total ram usage:        2 bytes
 10628 ;; Hardware stack levels used: 1
 10629 ;; Hardware stack levels required when called: 2
 10630 ;; This function calls:
 10631 ;;		_clcd_write
 10632 ;; This function is called by:
 10633 ;;		_login
 10634 ;;		_login_menu
 10635 ;;		_change_password
 10636 ;;		_change_time
 10637 ;;		_main
 10638 ;; This function uses a non-reentrant model
 10639 ;;
 10640                           
 10641     1134                     _clear_screen:	
 10642                           ;psect for function _clear_screen
 10643                           
 10644     1134                     l3907:	
 10645                           ;incstack = 0
 10646                           ; Regs used in _clear_screen: [wreg+status,2+status,0+pclath+cstack]
 10647                           
 10648                           
 10649                           ;car_black_box.c: 107:     clcd_write(0x01, 0);
 10650     1134  01F2               	clrf	clcd_write@mode
 10651     1135  3001               	movlw	1
 10652     1136  160A  118A  21AF  160A  118A  	fcall	_clcd_write
 10653     113B                     l3909:
 10654                           
 10655                           ;car_black_box.c: 108:     _delay((unsigned long)((500)*(20000000/4000000.0)));
 10656     113B  3004               	movlw	4
 10657     113C  00F7               	movwf	??_clear_screen+1
 10658     113D  303D               	movlw	61
 10659     113E  00F6               	movwf	??_clear_screen
 10660     113F                     u5177:
 10661     113F  0BF6               	decfsz	??_clear_screen,f
 10662     1140  293F               	goto	u5177
 10663     1141  0BF7               	decfsz	??_clear_screen+1,f
 10664     1142  293F               	goto	u5177
 10665     1143  2944               	nop2
 10666     1144                     l81:
 10667     1144  0008               	return
 10668     1145                     __end_of_clear_screen:
 10669                           
 10670                           	psect	text48
 10671     117C                     __ptext48:	
 10672 ;; *************** function _clcd_putch *****************
 10673 ;; Defined at:
 10674 ;;		line 53 in file "clcd.c"
 10675 ;; Parameters:    Size  Location     Type
 10676 ;;  data            1    wreg     const unsigned char 
 10677 ;;  addr            1    3[BANK0 ] unsigned char 
 10678 ;; Auto vars:     Size  Location     Type
 10679 ;;  data            1    4[BANK0 ] const unsigned char 
 10680 ;; Return value:  Size  Location     Type
 10681 ;;                  1    wreg      void 
 10682 ;; Registers used:
 10683 ;;		wreg, status,2, status,0, pclath, cstack
 10684 ;; Tracked objects:
 10685 ;;		On entry : 0/0
 10686 ;;		On exit  : 0/0
 10687 ;;		Unchanged: 0/0
 10688 ;; Data sizes:     COMMON   BANK0   BANK1   BANK3   BANK2
 10689 ;;      Params:         0       1       0       0       0
 10690 ;;      Locals:         0       1       0       0       0
 10691 ;;      Temps:          0       0       0       0       0
 10692 ;;      Totals:         0       2       0       0       0
 10693 ;;Total ram usage:        2 bytes
 10694 ;; Hardware stack levels used: 1
 10695 ;; Hardware stack levels required when called: 2
 10696 ;; This function calls:
 10697 ;;		_clcd_write
 10698 ;; This function is called by:
 10699 ;;		_display_time
 10700 ;;		_display_dashboard
 10701 ;;		_login
 10702 ;;		_login_menu
 10703 ;;		_view_log
 10704 ;;		_change_password
 10705 ;;		_change_time
 10706 ;; This function uses a non-reentrant model
 10707 ;;
 10708                           
 10709     117C                     _clcd_putch:	
 10710                           ;psect for function _clcd_putch
 10711                           
 10712                           
 10713                           ;incstack = 0
 10714                           ; Regs used in _clcd_putch: [wreg+status,2+status,0+pclath+cstack]
 10715                           ;clcd_putch@data stored from wreg
 10716     117C  1283               	bcf	3,5	;RP0=0, select bank0
 10717     117D  1303               	bcf	3,6	;RP1=0, select bank0
 10718     117E  00A4               	movwf	clcd_putch@data
 10719     117F                     l3789:
 10720                           
 10721                           ;clcd.c: 53: void clcd_putch(const char data, unsigned char addr);clcd.c: 54: {;clcd.c: 
      +                          55:     clcd_write(addr, 0);
 10722     117F  01F2               	clrf	clcd_write@mode
 10723     1180  0823               	movf	clcd_putch@addr,w
 10724     1181  160A  118A  21AF  160A  118A  	fcall	_clcd_write
 10725                           
 10726                           ;clcd.c: 56:     clcd_write(data, 1);
 10727     1186  01F2               	clrf	clcd_write@mode
 10728     1187  0AF2               	incf	clcd_write@mode,f
 10729     1188  1283               	bcf	3,5	;RP0=0, select bank0
 10730     1189  1303               	bcf	3,6	;RP1=0, select bank0
 10731     118A  0824               	movf	clcd_putch@data,w
 10732     118B  160A  118A  21AF  160A  118A  	fcall	_clcd_write
 10733     1190                     l234:
 10734     1190  0008               	return
 10735     1191                     __end_of_clcd_putch:
 10736                           
 10737                           	psect	text49
 10738     132F                     __ptext49:	
 10739 ;; *************** function _clcd_print *****************
 10740 ;; Defined at:
 10741 ;;		line 59 in file "clcd.c"
 10742 ;; Parameters:    Size  Location     Type
 10743 ;;  str             2    6[COMMON] PTR const unsigned char 
 10744 ;;		 -> STR_53(19), STR_52(18), STR_50(17), STR_49(17), 
 10745 ;;		 -> main@event(3), STR_40(3), STR_39(3), STR_38(3), 
 10746 ;;		 -> STR_37(13), STR_36(13), STR_35(16), STR_34(7), 
 10747 ;;		 -> STR_33(17), STR_32(14), STR_31(17), STR_30(18), 
 10748 ;;		 -> STR_29(18), STR_28(17), STR_27(17), STR_19(13), 
 10749 ;;		 -> STR_18(13), STR_17(17), STR_16(17), STR_15(17), 
 10750 ;;		 -> STR_14(17), STR_13(17), STR_12(15), STR_11(16), 
 10751 ;;		 -> STR_10(6), STR_9(9), STR_8(16), STR_7(14), 
 10752 ;;		 -> STR_6(17), STR_5(9), STR_4(14), STR_3(13), 
 10753 ;;		 -> STR_2(10), STR_1(9), 
 10754 ;;  addr            1    8[COMMON] unsigned char 
 10755 ;; Auto vars:     Size  Location     Type
 10756 ;;		None
 10757 ;; Return value:  Size  Location     Type
 10758 ;;                  1    wreg      void 
 10759 ;; Registers used:
 10760 ;;		wreg, fsr0l, fsr0h, status,2, status,0, btemp+1, pclath, cstack
 10761 ;; Tracked objects:
 10762 ;;		On entry : 0/0
 10763 ;;		On exit  : 0/0
 10764 ;;		Unchanged: 0/0
 10765 ;; Data sizes:     COMMON   BANK0   BANK1   BANK3   BANK2
 10766 ;;      Params:         3       0       0       0       0
 10767 ;;      Locals:         0       0       0       0       0
 10768 ;;      Temps:          0       0       0       0       0
 10769 ;;      Totals:         3       0       0       0       0
 10770 ;;Total ram usage:        3 bytes
 10771 ;; Hardware stack levels used: 1
 10772 ;; Hardware stack levels required when called: 2
 10773 ;; This function calls:
 10774 ;;		_clcd_write
 10775 ;; This function is called by:
 10776 ;;		_display_dashboard
 10777 ;;		_login
 10778 ;;		_login_menu
 10779 ;;		_view_log
 10780 ;;		_clear_log
 10781 ;;		_change_password
 10782 ;;		_change_time
 10783 ;;		_main
 10784 ;; This function uses a non-reentrant model
 10785 ;;
 10786                           
 10787     132F                     _clcd_print:	
 10788                           ;psect for function _clcd_print
 10789                           
 10790     132F                     l3867:	
 10791                           ;incstack = 0
 10792                           ; Regs used in _clcd_print: [wreg-fsr0h+status,2+status,0+btemp+1+pclath+cstack]
 10793                           
 10794                           
 10795                           ;clcd.c: 59: void clcd_print(const char *str, unsigned char addr);clcd.c: 60: {;clcd.c: 
      +                          61:     clcd_write(addr, 0);
 10796     132F  01F2               	clrf	clcd_write@mode
 10797     1330  0878               	movf	clcd_print@addr,w
 10798     1331  160A  118A  21AF  160A  118A  	fcall	_clcd_write
 10799                           
 10800                           ;clcd.c: 63:     while (*str != '\0')
 10801     1336  2B4D               	goto	l3873
 10802     1337                     l3869:
 10803                           
 10804                           ;clcd.c: 64:     {;clcd.c: 65:         clcd_write(*str, 1);
 10805     1337  01F2               	clrf	clcd_write@mode
 10806     1338  0AF2               	incf	clcd_write@mode,f
 10807     1339  0877               	movf	clcd_print@str+1,w
 10808     133A  00FF               	movwf	btemp+1
 10809     133B  0876               	movf	clcd_print@str,w
 10810     133C  0084               	movwf	4
 10811     133D  160A  118A  2000  160A  118A  	fcall	stringtab
 10812     1342  160A  118A  21AF  160A  118A  	fcall	_clcd_write
 10813     1347                     l3871:
 10814                           
 10815                           ;clcd.c: 66:         str++;
 10816     1347  3001               	movlw	1
 10817     1348  07F6               	addwf	clcd_print@str,f
 10818     1349  1803               	skipnc
 10819     134A  0AF7               	incf	clcd_print@str+1,f
 10820     134B  3000               	movlw	0
 10821     134C  07F7               	addwf	clcd_print@str+1,f
 10822     134D                     l3873:
 10823                           
 10824                           ;clcd.c: 63:     while (*str != '\0')
 10825     134D  0877               	movf	clcd_print@str+1,w
 10826     134E  1283               	bcf	3,5	;RP0=0, select bank0
 10827     134F  1303               	bcf	3,6	;RP1=0, select bank0
 10828     1350  00FF               	movwf	btemp+1
 10829     1351  0876               	movf	clcd_print@str,w
 10830     1352  0084               	movwf	4
 10831     1353  160A  118A  2000  160A  118A  	fcall	stringtab
 10832     1358  3A00               	xorlw	0
 10833     1359  1D03               	skipz
 10834     135A  2B5C               	goto	u3511
 10835     135B  2B5D               	goto	u3510
 10836     135C                     u3511:
 10837     135C  2B37               	goto	l3869
 10838     135D                     u3510:
 10839     135D                     l240:
 10840     135D  0008               	return
 10841     135E                     __end_of_clcd_print:
 10842                           
 10843                           	psect	text50
 10844     11AF                     __ptext50:	
 10845 ;; *************** function _clcd_write *****************
 10846 ;; Defined at:
 10847 ;;		line 8 in file "clcd.c"
 10848 ;; Parameters:    Size  Location     Type
 10849 ;;  byte            1    wreg     unsigned char 
 10850 ;;  mode            1    2[COMMON] unsigned char 
 10851 ;; Auto vars:     Size  Location     Type
 10852 ;;  byte            1    5[COMMON] unsigned char 
 10853 ;; Return value:  Size  Location     Type
 10854 ;;                  1    wreg      void 
 10855 ;; Registers used:
 10856 ;;		wreg
 10857 ;; Tracked objects:
 10858 ;;		On entry : 0/0
 10859 ;;		On exit  : 0/0
 10860 ;;		Unchanged: 0/0
 10861 ;; Data sizes:     COMMON   BANK0   BANK1   BANK3   BANK2
 10862 ;;      Params:         1       0       0       0       0
 10863 ;;      Locals:         1       0       0       0       0
 10864 ;;      Temps:          2       0       0       0       0
 10865 ;;      Totals:         4       0       0       0       0
 10866 ;;Total ram usage:        4 bytes
 10867 ;; Hardware stack levels used: 1
 10868 ;; Hardware stack levels required when called: 1
 10869 ;; This function calls:
 10870 ;;		Nothing
 10871 ;; This function is called by:
 10872 ;;		_clear_screen
 10873 ;;		_login
 10874 ;;		_init_display_controller
 10875 ;;		_clcd_putch
 10876 ;;		_clcd_print
 10877 ;;		_main
 10878 ;; This function uses a non-reentrant model
 10879 ;;
 10880                           
 10881     11AF                     _clcd_write:	
 10882                           ;psect for function _clcd_write
 10883                           
 10884                           
 10885                           ;incstack = 0
 10886                           ; Regs used in _clcd_write: [wreg]
 10887                           ;clcd_write@byte stored from wreg
 10888     11AF  00F5               	movwf	clcd_write@byte
 10889     11B0                     l3761:
 10890                           
 10891                           ;clcd.c: 8: void clcd_write(unsigned char byte, unsigned char mode);clcd.c: 9: {;clcd.c:
      +                           10:     RE2 = mode;
 10892     11B0  1872               	btfsc	clcd_write@mode,0
 10893     11B1  29B3               	goto	u3351
 10894     11B2  29B7               	goto	u3350
 10895     11B3                     u3351:
 10896     11B3  1283               	bcf	3,5	;RP0=0, select bank0
 10897     11B4  1303               	bcf	3,6	;RP1=0, select bank0
 10898     11B5  1509               	bsf	9,2	;volatile
 10899     11B6  29BA               	goto	u3364
 10900     11B7                     u3350:
 10901     11B7  1283               	bcf	3,5	;RP0=0, select bank0
 10902     11B8  1303               	bcf	3,6	;RP1=0, select bank0
 10903     11B9  1109               	bcf	9,2	;volatile
 10904     11BA                     u3364:
 10905     11BA                     l3763:
 10906                           
 10907                           ;clcd.c: 11:     PORTD = byte;
 10908     11BA  0875               	movf	clcd_write@byte,w
 10909     11BB  0088               	movwf	8	;volatile
 10910     11BC                     l3765:
 10911                           
 10912                           ;clcd.c: 13:     RE1 = 1;
 10913     11BC  1489               	bsf	9,1	;volatile
 10914                           
 10915                           ;clcd.c: 14:     _delay((unsigned long)((100)*(20000000/4000000.0)));
 10916     11BD  30A6               	movlw	166
 10917     11BE  00F3               	movwf	??_clcd_write
 10918     11BF                     u5187:
 10919     11BF  0BF3               	decfsz	??_clcd_write,f
 10920     11C0  29BF               	goto	u5187
 10921     11C1  0000               	nop
 10922     11C2                     l3767:
 10923                           
 10924                           ;clcd.c: 15:     RE1 = 0;
 10925     11C2  1283               	bcf	3,5	;RP0=0, select bank0
 10926     11C3  1303               	bcf	3,6	;RP1=0, select bank0
 10927     11C4  1089               	bcf	9,1	;volatile
 10928                           
 10929                           ;clcd.c: 17:     _delay((unsigned long)((4100)*(20000000/4000000.0)));
 10930     11C5  301B               	movlw	27
 10931     11C6  00F4               	movwf	??_clcd_write+1
 10932     11C7  309E               	movlw	158
 10933     11C8  00F3               	movwf	??_clcd_write
 10934     11C9                     u5197:
 10935     11C9  0BF3               	decfsz	??_clcd_write,f
 10936     11CA  29C9               	goto	u5197
 10937     11CB  0BF4               	decfsz	??_clcd_write+1,f
 10938     11CC  29C9               	goto	u5197
 10939     11CD  0000               	nop
 10940     11CE                     l225:
 10941     11CE  0008               	return
 10942     11CF                     __end_of_clcd_write:
 10943                           
 10944                           	psect	text51
 10945     13C0                     __ptext51:	
 10946 ;; *************** function _isr *****************
 10947 ;; Defined at:
 10948 ;;		line 11 in file "isr.c"
 10949 ;; Parameters:    Size  Location     Type
 10950 ;;		None
 10951 ;; Auto vars:     Size  Location     Type
 10952 ;;		None
 10953 ;; Return value:  Size  Location     Type
 10954 ;;                  1    wreg      void 
 10955 ;; Registers used:
 10956 ;;		wreg, status,2, status,0
 10957 ;; Tracked objects:
 10958 ;;		On entry : 0/0
 10959 ;;		On exit  : 0/0
 10960 ;;		Unchanged: 0/0
 10961 ;; Data sizes:     COMMON   BANK0   BANK1   BANK3   BANK2
 10962 ;;      Params:         0       0       0       0       0
 10963 ;;      Locals:         0       0       0       0       0
 10964 ;;      Temps:          2       0       0       0       0
 10965 ;;      Totals:         2       0       0       0       0
 10966 ;;Total ram usage:        2 bytes
 10967 ;; Hardware stack levels used: 1
 10968 ;; This function calls:
 10969 ;;		Nothing
 10970 ;; This function is called by:
 10971 ;;		Interrupt level 1
 10972 ;; This function uses a non-reentrant model
 10973 ;;
 10974                           
 10975     13C0                     _isr:	
 10976                           ;psect for function _isr
 10977                           
 10978     13C0                     i1l3457:
 10979                           
 10980                           ;isr.c: 13:     static unsigned int count = 0;;isr.c: 15:     if (TMR2IF == 1)
 10981     13C0  1283               	bcf	3,5	;RP0=0, select bank0
 10982     13C1  1303               	bcf	3,6	;RP1=0, select bank0
 10983     13C2  1C8C               	btfss	12,1	;volatile
 10984     13C3  2BC5               	goto	u307_21
 10985     13C4  2BC6               	goto	u307_20
 10986     13C5                     u307_21:
 10987     13C5  2BF1               	goto	i1l382
 10988     13C6                     u307_20:
 10989     13C6                     i1l3459:
 10990                           
 10991                           ;isr.c: 16:     {;isr.c: 17:         if (++count == 1250)
 10992     13C6  3001               	movlw	1
 10993     13C7  1683               	bsf	3,5	;RP0=1, select bank1
 10994     13C8  1303               	bcf	3,6	;RP1=0, select bank1
 10995     13C9  07A0               	addwf	isr@count^(0+128),f
 10996     13CA  1803               	skipnc
 10997     13CB  0AA1               	incf	(isr@count+1)^(0+128),f
 10998     13CC  3000               	movlw	0
 10999     13CD  07A1               	addwf	(isr@count+1)^(0+128),f
 11000     13CE  30E2               	movlw	226
 11001     13CF  0620               	xorwf	isr@count^(0+128),w
 11002     13D0  3004               	movlw	4
 11003     13D1  1903               	skipnz
 11004     13D2  0621               	xorwf	(isr@count+1)^(0+128),w
 11005     13D3  1D03               	btfss	3,2
 11006     13D4  2BD6               	goto	u308_21
 11007     13D5  2BD7               	goto	u308_20
 11008     13D6                     u308_21:
 11009     13D6  2BEF               	goto	i1l3471
 11010     13D7                     u308_20:
 11011     13D7                     i1l3461:
 11012                           
 11013                           ;isr.c: 18:         {;isr.c: 19:             count = 0;
 11014     13D7  01A0               	clrf	isr@count^(0+128)
 11015     13D8  01A1               	clrf	(isr@count+1)^(0+128)
 11016     13D9                     i1l3463:
 11017                           
 11018                           ;isr.c: 20:             if (sec > 0)
 11019     13D9  1283               	bcf	3,5	;RP0=0, select bank0
 11020     13DA  1303               	bcf	3,6	;RP1=0, select bank0
 11021     13DB  084E               	movf	_sec,w
 11022     13DC  044F               	iorwf	_sec+1,w
 11023     13DD  1903               	btfsc	3,2
 11024     13DE  2BE0               	goto	u309_21
 11025     13DF  2BE1               	goto	u309_20
 11026     13E0                     u309_21:
 11027     13E0  2BE8               	goto	i1l3467
 11028     13E1                     u309_20:
 11029     13E1                     i1l3465:
 11030                           
 11031                           ;isr.c: 21:                 sec--;
 11032     13E1  3001               	movlw	1
 11033     13E2  02CE               	subwf	_sec,f
 11034     13E3  3000               	movlw	0
 11035     13E4  1C03               	skipc
 11036     13E5  03CF               	decf	_sec+1,f
 11037     13E6  02CF               	subwf	_sec+1,f
 11038     13E7  2BEF               	goto	i1l3471
 11039     13E8                     i1l3467:
 11040     13E8  085C               	movf	_return_time,w
 11041     13E9  1903               	btfsc	3,2
 11042     13EA  2BEC               	goto	u310_21
 11043     13EB  2BED               	goto	u310_20
 11044     13EC                     u310_21:
 11045     13EC  2BEF               	goto	i1l3471
 11046     13ED                     u310_20:
 11047     13ED                     i1l3469:
 11048                           
 11049                           ;isr.c: 23:                 return_time--;
 11050     13ED  3001               	movlw	1
 11051     13EE  02DC               	subwf	_return_time,f
 11052     13EF                     i1l3471:
 11053                           
 11054                           ;isr.c: 25:         TMR2IF = 0;
 11055     13EF  1283               	bcf	3,5	;RP0=0, select bank0
 11056     13F0  108C               	bcf	12,1	;volatile
 11057     13F1                     i1l382:
 11058     13F1  0871               	movf	??_isr+1,w
 11059     13F2  008A               	movwf	10
 11060     13F3  0E70               	swapf	??_isr,w
 11061     13F4  0083               	movwf	3
 11062     13F5  0EFE               	swapf	btemp,f
 11063     13F6  0E7E               	swapf	btemp,w
 11064     13F7  0009               	retfie
 11065     13F8                     __end_of_isr:
 11066     0002                     ___latbits      equ	2
 11067     007E                     btemp           set	126	;btemp
 11068     007E                     wtemp0          set	126
 11069                           
 11070                           	psect	intentry
 11071     0004                     __pintentry:	
 11072                           ;incstack = 0
 11073                           ; Regs used in _isr: [wreg+status,2+status,0]
 11074                           
 11075     0004                     interrupt_function:
 11076     007E                     saved_w         set	btemp
 11077     0004  00FE               	movwf	btemp
 11078     0005  0E03               	swapf	3,w
 11079     0006  00F0               	movwf	??_isr
 11080     0007  080A               	movf	10,w
 11081     0008  00F1               	movwf	??_isr+1
 11082     0009  160A  118A  2BC0   	ljmp	_isr
 11083                           
 11084                           	psect	config
 11085                           
 11086                           ;Config register CONFIG @ 0x2007
 11087                           ;	Oscillator Selection bits
 11088                           ;	FOSC = 0x3, unprogrammed default
 11089                           ;	Watchdog Timer Enable bit
 11090                           ;	WDTE = OFF, WDT disabled
 11091                           ;	Power-up Timer Enable bit
 11092                           ;	PWRTE = 0x1, unprogrammed default
 11093                           ;	Brown-out Reset Enable bit
 11094                           ;	BOREN = 0x1, unprogrammed default
 11095                           ;	Low-Voltage (Single-Supply) In-Circuit Serial Programming Enable bit
 11096                           ;	LVP = 0x1, unprogrammed default
 11097                           ;	Data EEPROM Memory Code Protection bit
 11098                           ;	CPD = 0x1, unprogrammed default
 11099                           ;	Flash Program Memory Write Enable bits
 11100                           ;	WRT = 0x3, unprogrammed default
 11101                           ;	In-Circuit Debugger Mode bit
 11102                           ;	DEBUG = 0x1, unprogrammed default
 11103                           ;	Flash Program Memory Code Protection bit
 11104                           ;	CP = 0x1, unprogrammed default
 11105     2007                     	org	8199
 11106     2007  3FFB               	dw	16379

Data Sizes:
    Strings     506
    Constant    0
    Data        31
    BSS         63
    Persistent  0
    Stack       0

Auto Spaces:
    Space          Size  Autos    Used
    COMMON           14     10      12
    BANK0            80     29      61
    BANK1            80      0      60
    BANK3            96     21      21
    BANK2            96      0       0

Pointer List with Targets:

    clcd_print@str	PTR const unsigned char  size(2) Largest target is 19
		 -> main@event(BANK3[3]), STR_1(CODE[9]), STR_10(CODE[6]), STR_11(CODE[16]), 
		 -> STR_12(CODE[15]), STR_13(CODE[17]), STR_14(CODE[17]), STR_15(CODE[17]), 
		 -> STR_16(CODE[17]), STR_17(CODE[17]), STR_18(CODE[13]), STR_19(CODE[13]), 
		 -> STR_2(CODE[10]), STR_27(CODE[17]), STR_28(CODE[17]), STR_29(CODE[18]), 
		 -> STR_3(CODE[13]), STR_30(CODE[18]), STR_31(CODE[17]), STR_32(CODE[14]), 
		 -> STR_33(CODE[17]), STR_34(CODE[7]), STR_35(CODE[16]), STR_36(CODE[13]), 
		 -> STR_37(CODE[13]), STR_38(CODE[3]), STR_39(CODE[3]), STR_4(CODE[14]), 
		 -> STR_40(CODE[3]), STR_49(CODE[17]), STR_5(CODE[9]), STR_50(CODE[17]), 
		 -> STR_52(CODE[18]), STR_53(CODE[19]), STR_6(CODE[17]), STR_7(CODE[14]), 
		 -> STR_8(CODE[16]), STR_9(CODE[9]), 

    display_dashboard@event	PTR unsigned char  size(1) Largest target is 3
		 -> main@event(BANK3[3]), 

    ext_eeprom_str_write@data	PTR unsigned char  size(2) Largest target is 11
		 -> change_password@new_pwd(BANK1[9]), log(BANK1[11]), STR_47(CODE[5]), 

    log_car_event@event	PTR unsigned char  size(2) Largest target is 3
		 -> main@event(BANK3[3]), STR_51(CODE[3]), STR_54(CODE[3]), STR_55(CODE[3]), 
		 -> STR_56(CODE[3]), 

    main@F1225	PTR unsigned char [6] size(2) Largest target is 3
		 -> STR_41(CODE[3]), STR_42(CODE[3]), STR_43(CODE[3]), STR_44(CODE[3]), 
		 -> STR_45(CODE[3]), STR_46(CODE[3]), 

    main@gear	PTR unsigned char [6] size(2) Largest target is 3
		 -> STR_41(CODE[3]), STR_42(CODE[3]), STR_43(CODE[3]), STR_44(CODE[3]), 
		 -> STR_45(CODE[3]), STR_46(CODE[3]), 

    menu	PTR unsigned char [5] size(2) Largest target is 14
		 -> STR_1(CODE[9]), STR_2(CODE[10]), STR_3(CODE[13]), STR_4(CODE[14]), 
		 -> STR_5(CODE[9]), 

    puts@s	PTR const unsigned char  size(2) Largest target is 32
		 -> STR_20(CODE[18]), STR_21(CODE[7]), STR_22(CODE[32]), STR_23(CODE[6]), 
		 -> STR_24(CODE[4]), STR_25(CODE[9]), 

    sp__strcpy	PTR unsigned char  size(1) Largest target is 3
		 -> main@event(BANK3[3]), 

    sp__strncpy	PTR unsigned char  size(1) Largest target is 11
		 -> change_password@new_pwd(BANK1[9]), log(BANK1[11]), 

    strcpy@d	PTR unsigned char  size(1) Largest target is 3
		 -> main@event(BANK3[3]), 

    strcpy@dest	PTR unsigned char  size(1) Largest target is 3
		 -> main@event(BANK3[3]), 

    strcpy@src	PTR const unsigned char  size(2) Largest target is 3
		 -> STR_41(CODE[3]), STR_42(CODE[3]), STR_43(CODE[3]), STR_44(CODE[3]), 
		 -> STR_45(CODE[3]), STR_46(CODE[3]), STR_48(CODE[3]), 

    strncmp@l	PTR const unsigned char  size(1) Largest target is 9
		 -> change_password@new_pwd(BANK1[9]), login@spassword(BANK0[4]), 

    strncmp@r	PTR const unsigned char  size(1) Largest target is 9
		 -> change_password@new_pwd(BANK1[9]), login@npassword(BANK1[4]), 

    strncpy@cp	PTR unsigned char  size(1) Largest target is 11
		 -> change_password@new_pwd(BANK1[9]), log(BANK1[11]), 

    strncpy@d	PTR unsigned char  size(1) Largest target is 11
		 -> change_password@new_pwd(BANK1[9]), log(BANK1[11]), 

    strncpy@s	PTR const unsigned char  size(2) Largest target is 7
		 -> main@event(BANK3[3]), STR_26(CODE[5]), STR_51(CODE[3]), STR_54(CODE[3]), 
		 -> STR_55(CODE[3]), STR_56(CODE[3]), time(BANK1[7]), 


Critical Paths under _main in COMMON

    _main->___lwdiv
    _main->_clear_log
    _main->_ext_eeprom_str_write
    _login->___lwdiv
    _log_car_event->___awdiv
    _log_car_event->_strncpy
    _log_event->_ext_eeprom_str_write
    _init_uart->___lldiv
    _init_i2c->___lldiv
    _init_ds1307->_read_ds1307
    _init_clcd->_init_display_controller
    _init_display_controller->_clcd_write
    _download_log->_ext_eeprom_read
    _puts->_putchar
    _ext_eeprom_read->_i2c_read
    _display_dashboard->___awdiv
    _clear_log->_clcd_print
    _change_time->___lwdiv
    _write_ds1307->_i2c_write
    _get_time->_read_ds1307
    _read_ds1307->_i2c_read
    ___lwdiv->_read_adc
    _change_password->_ext_eeprom_str_write
    _change_password->_strncpy
    _ext_eeprom_str_write->_ext_eeprom_write
    _ext_eeprom_write->_i2c_write
    _clear_screen->_clcd_write
    _clcd_putch->___awdiv
    _clcd_putch->___lwdiv
    _clcd_print->_clcd_write

Critical Paths under _isr in COMMON

    None.

Critical Paths under _main in BANK0

    _main->_view_log
    _view_log->_clcd_putch
    _login_menu->_clcd_putch
    _login->_clcd_putch
    _log_car_event->_log_event
    _init_config->_init_i2c
    _init_config->_init_uart
    _init_uart->___lldiv
    _init_i2c->___lldiv
    _display_dashboard->_clcd_putch
    _display_time->_clcd_putch
    _change_time->_clcd_putch
    _change_password->_clcd_putch
    _clcd_putch->___lwdiv

Critical Paths under _isr in BANK0

    None.

Critical Paths under _main in BANK1

    None.

Critical Paths under _isr in BANK1

    None.

Critical Paths under _main in BANK3

    None.

Critical Paths under _isr in BANK3

    None.

Critical Paths under _main in BANK2

    None.

Critical Paths under _isr in BANK2

    None.

Call Graph Tables:

 ---------------------------------------------------------------------------------
 (Depth) Function   	        Calls       Base Space   Used Autos Params    Refs
 ---------------------------------------------------------------------------------
 (0) _main                                                25    25      0   19920
                                             25 BANK0      4     4      0
                                              0 BANK3     21    21      0
                            ___lwdiv
                    _change_password
                        _change_time
                         _clcd_print
                         _clcd_write
                          _clear_log
                       _clear_screen
                  _display_dashboard
                       _download_log
               _ext_eeprom_str_write
                        _init_config
                      _log_car_event
                              _login
                         _login_menu
                           _read_adc
                _read_digital_keypad
                             _strcpy
                           _view_log
 ---------------------------------------------------------------------------------
 (1) _view_log                                            20    19      1    1927
                                              5 BANK0     20    19      1
                             ___bmul
                         _clcd_print
                         _clcd_putch
                    _ext_eeprom_read
 ---------------------------------------------------------------------------------
 (2) _strcpy                                               6     3      3     121
                                              2 COMMON     6     3      3
 ---------------------------------------------------------------------------------
 (1) _read_digital_keypad                                  1     1      0     161
                                              2 COMMON     1     1      0
 ---------------------------------------------------------------------------------
 (1) _read_adc                                             4     2      2      34
                                              2 COMMON     4     2      2
 ---------------------------------------------------------------------------------
 (1) _login_menu                                           4     3      1    1061
                                              5 BANK0      4     3      1
                         _clcd_print
                         _clcd_putch
                       _clear_screen
 ---------------------------------------------------------------------------------
 (1) _login                                               11    10      1    2457
                                              5 BANK0     11    10      1
                            ___lwdiv
                            ___lwmod
                         _clcd_print
                         _clcd_putch
                         _clcd_write
                       _clear_screen
                    _ext_eeprom_read
                            _strncmp
 ---------------------------------------------------------------------------------
 (1) _log_car_event                                        5     2      3    1953
                                              1 BANK0      5     2      3
                            ___awdiv
                            ___awmod
                           _get_time
                          _log_event
                            _strncpy
 ---------------------------------------------------------------------------------
 (2) _log_event                                            1     1      0     472
                                              0 BANK0      1     1      0
                             ___bmul
               _ext_eeprom_str_write
 ---------------------------------------------------------------------------------
 (1) _init_config                                          0     0      0    1092
                           _init_adc
                          _init_clcd
                _init_digital_keypad
                        _init_ds1307
                           _init_i2c
                        _init_timer2
                          _init_uart
 ---------------------------------------------------------------------------------
 (2) _init_uart                                            8     4      4     287
                                              6 BANK0      8     4      4
                            ___lldiv
 ---------------------------------------------------------------------------------
 (2) _init_timer2                                          0     0      0       0
 ---------------------------------------------------------------------------------
 (2) _init_i2c                                             8     4      4     287
                                              6 BANK0      8     4      4
                            ___lldiv
 ---------------------------------------------------------------------------------
 (3) ___lldiv                                             14     6      8     253
                                              2 COMMON     8     0      8
                                              0 BANK0      6     6      0
 ---------------------------------------------------------------------------------
 (2) _init_ds1307                                          1     1      0     383
                                              6 COMMON     1     1      0
                        _read_ds1307
                       _write_ds1307
 ---------------------------------------------------------------------------------
 (2) _init_digital_keypad                                  0     0      0       0
 ---------------------------------------------------------------------------------
 (2) _init_clcd                                            0     0      0     135
            _init_display_controller
 ---------------------------------------------------------------------------------
 (3) _init_display_controller                              2     2      0     135
                                              6 COMMON     2     2      0
                         _clcd_write
 ---------------------------------------------------------------------------------
 (2) _init_adc                                             0     0      0       0
 ---------------------------------------------------------------------------------
 (1) _download_log                                        19    19      0    1280
                                              6 COMMON     1     1      0
                                              0 BANK0     18    18      0
                             ___bmul
                    _ext_eeprom_read
                            _putchar
                               _puts
 ---------------------------------------------------------------------------------
 (2) _puts                                                 2     0      2     130
                                              3 COMMON     2     0      2
                            _putchar
 ---------------------------------------------------------------------------------
 (3) _putchar                                              1     1      0      47
                                              2 COMMON     1     1      0
 ---------------------------------------------------------------------------------
 (2) _ext_eeprom_read                                      2     2      0     212
                                              4 COMMON     2     2      0
                           _i2c_read
                      _i2c_rep_start
                          _i2c_start
                           _i2c_stop
                          _i2c_write
 ---------------------------------------------------------------------------------
 (2) ___bmul                                               3     2      1     180
                                              2 COMMON     3     2      1
 ---------------------------------------------------------------------------------
 (1) _display_dashboard                                    4     2      2    2353
                                              5 BANK0      4     2      2
                            ___awdiv
                            ___awmod
                         _clcd_print
                         _clcd_putch
                       _display_time
 ---------------------------------------------------------------------------------
 (2) _display_time                                         0     0      0     554
                         _clcd_putch
                           _get_time
 ---------------------------------------------------------------------------------
 (2) ___awmod                                              6     2      4     445
                                              2 COMMON     6     2      4
 ---------------------------------------------------------------------------------
 (2) ___awdiv                                              8     4      4     457
                                              2 COMMON     8     4      4
 ---------------------------------------------------------------------------------
 (1) _clear_log                                            1     1      0     500
                                              9 COMMON     1     1      0
                         _clcd_print
 ---------------------------------------------------------------------------------
 (1) _change_time                                          6     5      1    2183
                                              5 BANK0      6     5      1
                            ___lwdiv
                            ___lwmod
                             ___wmul
                         _clcd_print
                         _clcd_putch
                       _clear_screen
                           _get_time
                       _write_ds1307
 ---------------------------------------------------------------------------------
 (3) _write_ds1307                                         2     1      1     137
                                              3 COMMON     2     1      1
                          _i2c_start
                           _i2c_stop
                          _i2c_write
 ---------------------------------------------------------------------------------
 (2) _get_time                                             1     1      0     209
                                              6 COMMON     1     1      0
                        _read_ds1307
 ---------------------------------------------------------------------------------
 (3) _read_ds1307                                          2     2      0     209
                                              4 COMMON     2     2      0
                           _i2c_read
                      _i2c_rep_start
                          _i2c_start
                           _i2c_stop
                          _i2c_write
 ---------------------------------------------------------------------------------
 (3) _i2c_rep_start                                        0     0      0       0
                          _i2c_start
                           _i2c_stop
 ---------------------------------------------------------------------------------
 (3) _i2c_read                                             2     2      0      81
                                              2 COMMON     2     2      0
                  _i2c_wait_for_idle
 ---------------------------------------------------------------------------------
 (2) ___wmul                                               6     2      4     154
                                              2 COMMON     6     2      4
 ---------------------------------------------------------------------------------
 (2) ___lwmod                                              5     1      4     276
                                              2 COMMON     5     1      4
 ---------------------------------------------------------------------------------
 (2) ___lwdiv                                              7     3      4     285
                                              6 COMMON     4     0      4
                                              0 BANK0      3     3      0
                           _read_adc (ARG)
 ---------------------------------------------------------------------------------
 (1) _change_password                                      5     4      1    1773
                                              5 BANK0      5     4      1
                         _clcd_print
                         _clcd_putch
                       _clear_screen
               _ext_eeprom_str_write
                            _strncmp
                            _strncpy
 ---------------------------------------------------------------------------------
 (3) _strncpy                                              8     3      5     229
                                              2 COMMON     8     3      5
 ---------------------------------------------------------------------------------
 (2) _strncmp                                              6     2      4     275
                                              2 COMMON     6     2      4
 ---------------------------------------------------------------------------------
 (3) _ext_eeprom_str_write                                 3     1      2     255
                                              7 COMMON     3     1      2
                   _ext_eeprom_write
 ---------------------------------------------------------------------------------
 (4) _ext_eeprom_write                                     4     3      1     128
                                              3 COMMON     4     3      1
                          _i2c_start
                           _i2c_stop
                          _i2c_write
 ---------------------------------------------------------------------------------
 (3) _i2c_write                                            1     1      0      47
                                              2 COMMON     1     1      0
                  _i2c_wait_for_idle
 ---------------------------------------------------------------------------------
 (3) _i2c_stop                                             0     0      0       0
                  _i2c_wait_for_idle
 ---------------------------------------------------------------------------------
 (3) _i2c_start                                            0     0      0       0
                  _i2c_wait_for_idle
 ---------------------------------------------------------------------------------
 (4) _i2c_wait_for_idle                                    0     0      0       0
 ---------------------------------------------------------------------------------
 (2) _clear_screen                                         2     2      0     135
                                              6 COMMON     2     2      0
                         _clcd_write
 ---------------------------------------------------------------------------------
 (2) _clcd_putch                                           2     1      1     345
                                              3 BANK0      2     1      1
                            ___awdiv (ARG)
                            ___awmod (ARG)
                            ___lwdiv (ARG)
                            ___lwmod (ARG)
                         _clcd_write
 ---------------------------------------------------------------------------------
 (2) _clcd_print                                           3     0      3     453
                                              6 COMMON     3     0      3
                         _clcd_write
 ---------------------------------------------------------------------------------
 (3) _clcd_write                                           4     3      1     135
                                              2 COMMON     4     3      1
 ---------------------------------------------------------------------------------
 Estimated maximum stack depth 4
 ---------------------------------------------------------------------------------
 (Depth) Function   	        Calls       Base Space   Used Autos Params    Refs
 ---------------------------------------------------------------------------------
 (8) _isr                                                  2     2      0       0
                                              0 COMMON     2     2      0
 ---------------------------------------------------------------------------------
 Estimated maximum stack depth 8
 ---------------------------------------------------------------------------------

 Call Graph Graphs:

 _main (ROOT)
   ___lwdiv
     _read_adc (ARG)
   _change_password
     _clcd_print
       _clcd_write
     _clcd_putch
       ___awdiv (ARG)
       ___awmod (ARG)
       ___lwdiv (ARG)
       ___lwmod (ARG)
       _clcd_write (ARG)
     _clear_screen
       _clcd_write
     _ext_eeprom_str_write
       _ext_eeprom_write
         _i2c_start
           _i2c_wait_for_idle
         _i2c_stop
           _i2c_wait_for_idle
         _i2c_write
           _i2c_wait_for_idle
     _strncmp
     _strncpy
   _change_time
     ___lwdiv
     ___lwmod
     ___wmul
     _clcd_print
     _clcd_putch
     _clear_screen
     _get_time
       _read_ds1307
         _i2c_read
           _i2c_wait_for_idle
         _i2c_rep_start
           _i2c_start
           _i2c_stop
         _i2c_start
         _i2c_stop
         _i2c_write
     _write_ds1307
       _i2c_start
       _i2c_stop
       _i2c_write
   _clcd_print
   _clcd_write
   _clear_log
     _clcd_print
   _clear_screen
   _display_dashboard
     ___awdiv
     ___awmod
     _clcd_print
     _clcd_putch
     _display_time
       _clcd_putch
       _get_time
   _download_log
     ___bmul
     _ext_eeprom_read
       _i2c_read
       _i2c_rep_start
       _i2c_start
       _i2c_stop
       _i2c_write
     _putchar
     _puts
       _putchar
   _ext_eeprom_str_write
   _init_config
     _init_adc
     _init_clcd
       _init_display_controller
         _clcd_write
     _init_digital_keypad
     _init_ds1307
       _read_ds1307
       _write_ds1307
     _init_i2c
       ___lldiv
     _init_timer2
     _init_uart
       ___lldiv
   _log_car_event
     ___awdiv
     ___awmod
     _get_time
     _log_event
       ___bmul
       _ext_eeprom_str_write
     _strncpy
   _login
     ___lwdiv
     ___lwmod
     _clcd_print
     _clcd_putch
     _clcd_write
     _clear_screen
     _ext_eeprom_read
     _strncmp
   _login_menu
     _clcd_print
     _clcd_putch
     _clear_screen
   _read_adc
   _read_digital_keypad
   _strcpy
   _view_log
     ___bmul
     _clcd_print
     _clcd_putch
     _ext_eeprom_read

 _isr (ROOT)

Address spaces:
Name               Size   Autos  Total    Usage
BANK3               96     21      21     21.9%
BITBANK3            96      0       0      0.0%
BANK2               96      0       0      0.0%
BITBANK2            96      0       0      0.0%
BANK1               80      0      60     75.0%
BITBANK1            80      0       0      0.0%
BANK0               80     29      61     76.2%
BITBANK0            80      0       0      0.0%
COMMON              14     10      12     85.7%
BITCOMMON           14      0       0      0.0%
DATA                 0      0     154      0.0%
STACK                0      0       0      0.0%


Microchip Technology PIC Macro Assembler V3.00 build 20241204225717 
Symbol Table                                                                                   Tue Mar 18 23:09:58 2025

                              pc 0002                   ___bmul@product 0073                   clcd_print@addr 0078  
                             l21 1168                               l15 10D3                               l18 115A  
                             l70 15CF                               l64 179C                               l81 1144  
                             l67 1739                               l75 14A8                               l92 0FFF  
                             l78 16D7                               _GO 00FA                     ___awdiv@sign 0077  
                             fsr 0004              ___wmul@multiplicand 0074               login_menu@menu_pos 0055  
                            l111 0A4F                              l104 0F9C                              l131 0CAB  
                            l135 1303                              l303 132E                              l231 1119  
                            l240 135D                              l312 12AD                              l225 11CE  
                            l161 0E49                              l145 0B6B                              l234 1190  
                            l306 1282                              l228 167D                              l260 0998  
                            l500 0350                              l341 13BF                              l350 10E4  
                            l247 10C6                              l344 111A                              l360 11ED  
                            l361 11EF                              l353 1103                              l193 067D  
                            l282 1156                              l347 1126                              l356 10ED  
                            l364 10F8                              l285 12D8                              l517 1133  
                            l534 138D                              l359 11EA                              l439 1469  
                            l640 1235                              l288 11AE                              l544 1109  
                            l552 125B                              l545 110D                              l481 0274  
                            l546 110E                              l490 02BA                              l491 02BF  
                            l459 024D                              l804 1626                              l476 03A0  
                            l638 121D                              l479 025E                              l664 117B  
                            l488 02B0                              l489 02B5                              l674 06E3  
                            l918 1530                              l791 17FF                              l928 142F  
                            _GIE 005F                              _RE1 0049                              _RE2 004A  
                            _PR2 0092                              _PEN 048A                              _SEN 0488  
                  ?_display_time 0070                    log_event@addr 0020                              _log 00A4  
                            _sec 004E                              _isr 13C0                   clcd_putch@addr 0023  
                            _pos 0059                              fsr0 0004                   clcd_putch@data 0024  
                            indf 0000                     ___awmod@sign 0077               log_car_event@event 0021  
             log_car_event@speed 0023       change_password@pwd_changed 007B                             l1100 1210  
                           l1104 157B                             l1119 14EC            ??_read_digital_keypad 0072  
                           l4011 17A9                             l4003 179D                             l4101 151E  
                           l4021 17BC                             l4013 17AD                             l4005 179E  
                           l4103 151F                             l4111 13F8                             l4031 17DD  
                           l4023 17BF                             l4015 17B2                             l4007 17A2  
                           l4105 1526                             l4121 140E                             l4113 13FE  
                           l5001 05CD                             l4041 17F6                             l4033 17E3  
                           l4025 17C6                             l4017 17B4                             l4009 17A7  
                           l4107 152C                             l4123 1418                             l4115 1401  
                           l4043 17FB                             l4035 17E4                             l4027 17C8  
                           l4019 17B6                             l4051 15D5                             l4211 0EE1  
                           l4125 141E                             l4117 1408                             l4037 17EB  
                           l4029 17CC                             l4061 15EB                             l4053 15DA  
                           l4141 1587                             l4221 0F20                             l4213 0EF4  
                           l4205 0EBF                             l4301 09D6                             l4133 1157  
                           l4127 1425                             l4119 140A                             l4039 17F1  
                           l4071 1605                             l4063 15EE                             l4055 15DC  
                           l4047 15D0                             l4143 158C                             l4151 16D1  
                           l4231 0F37                             l4215 0F00                             l4207 0ECC  
                           l4311 09FE                             l4135 115E                             l4129 142B  
                           l4081 1622                             l4073 160B                             l4065 15F5  
                           l4057 15E0                             l4049 15D1                             l4401 0A9E  
                           l4153 16D2                             l4145 167E                             l4241 0F66  
                           l4233 0F3E                             l4217 0F07                             l4209 0ED4  
                           l4161 0E5E                             l4313 0A14                             l4305 09D9  
                           l4091 14FA                             l4075 1612                             l4067 15F7  
                           l4059 15E5                             l4139 157C                             l4411 0ABA  
                           l4147 1683                             l4251 0FC5                             l4243 0F94  
                           l4235 0F49                             l4219 0F12                             l4227 0F22  
                           l4171 0E69                             l4163 0E60                             l4155 0E4D  
                           l4315 0A1A                             l4307 09E1                             l4331 0B95  
                           l4323 0B6F                             l4501 0D72                             l4093 1501  
                           l4085 14ED                             l4069 15FB                             l4077 1618  
                           l4421 0AE9                             l4413 0AC2                             l4149 1692  
                           l4261 0FE9                             l4253 0FD4                             l4237 0F54  
                           l4229 0F2B                             l4245 0F9F                             l4181 0E94  
                           l4173 0E77                             l4157 0E53                             l4165 0E62  
                           l4317 0A42                             l4309 09E9                             l4341 0BBF  
                           l4333 0B97                             l4325 0B70                             l4511 0D98  
                           l4503 0D7B                             l4095 1503                             l4087 14F1  
                           l4079 161D                             l4431 0B0D                             l4423 0AF1  
                           l4415 0ACF                             l4407 0AA0                             l4263 0FF0  
                           l4255 0FD9                             l4247 0FA4                             l4239 0F5F  
                           l4191 0EAD                             l4183 0E98                             l4175 0E7F  
                           l4167 0E67                             l4159 0E55                             l4319 0A4C  
                           l4271 099C                             l4351 0BED                             l4343 0BC7  
                           l4335 0B9D                             l4327 0B78                             l3721 1120  
                           l4521 0DB8                             l4513 0D9E                             l4505 0D83  
                           l4097 1507                             l4089 14F7                             l4601 04A2  
                           l3801 1105                             l4441 0B47                             l4433 0B15  
                           l4425 0AF7                             l4417 0AD8                             l4409 0AAF  
                           l4265 0FF7                             l4257 0FE4                             l4249 0FAF  
                           l4177 0E85                             l4185 0E9B                             l4281 09AB  
                           l4273 09A1                             l4361 0C09                             l4345 0BD4  
                           l4337 0BAB                             l4329 0B8F                             l3723 10DC  
                           l3731 10EF                             l4531 0DEA                             l4515 0DA7  
                           l4507 0D85                             l4451 0CBE                             l4099 1518  
                           l3803 1192                             l4611 0522                             l4603 04AA  
                           l4371 12F0                             l4443 0B4F                             l4435 0B1D  
                           l4427 0AFF                             l4419 0AE1                             l3811 1646  
                           l4259 0FE7                             l4267 0FFE                             l4187 0EA1  
                           l4179 0E8B                             l4291 09C0                             l4283 09AC  
                           l4363 0C11                             l4347 0BDC                             l4339 0BB3  
                           l3725 10E1                             l3733 10F4                             l3901 14D8  
                           l4541 0E0F                             l4533 0DED                             l4517 0DAF  
                           l4509 0D8C                             l4525 0DC4                             l4461 0CE4  
                           l4453 0CC0                             l3741 11D0                             l4621 0550  
                           l4613 0527                             l4605 04DA                             l4373 12F6  
                           l4445 0B55                             l4437 0B36                             l4429 0B07  
                           l4381 0A50                             l3821 1668                             l3813 164B  
                           l3805 1627                             l4189 0EA7                             l4197 0EB7  
                           l4293 09C2                             l4285 09B1                             l4277 09A3  
                           l4701 093E                             l4365 0C1E                             l4357 0BEF  
                           l4349 0BE7                             l3719 111A                             l3727 10E5  
                           l3735 10F8                             l3903 14DC                             l4543 0E1A  
                           l4535 0DF7                             l4519 0DB1                             l4527 0DCE  
                           l4471 0CEE                             l4463 0CE5                             l4455 0CCA  
                           l3751 11EE                             l3743 11D5                             l4631 0566  
                           l4615 0532                             l4607 0516                             l3831 1171  
                           l3911 1305                             l4439 0B3F                             l4447 0B5B  
                           l4391 0A69                             l4383 0A56                             l3823 1671  
                           l3815 1652                             l3807 162F                             l4199 0EBD  
                           l4287 09B9                             l4295 09C8                             l4279 09A9  
                           l4711 095F                             l4367 0CA1                             l4359 0BFE  
                           l3761 11B0                             l3729 10EA                             l3905 14DE  
                           l4545 0E1C                             l4537 0DFF                             l4553 0E2D  
                           l4529 0DD7                             l4481 0D0D                             l4473 0CF3  
                           l4457 0CD1                             l4465 0CE7                             l4449 0CAF  
                           l3745 11DD                             l4641 057E                             l4633 0568  
                           l4617 053D                             l4609 051A                             l4377 1302  
                           l4369 12DA                             l3833 1173                             l3825 116A  
                           l3921 131B                             l3913 1305                             l4393 0A72  
                           l4385 0A57                             l3817 1655                             l3809 1636  
                           l3841 0690                             l4297 09CE                             l4289 09BE  
                           l4713 0964                             l4705 0942                             l3763 11BA  
                           l3907 1134                             l3771 1279                             l3931 1531  
                           l4555 0E32                             l4547 0E2B                             l4539 0E04  
                           l4491 0D46                             l4483 0D14                             l4467 0CEC  
                           l4459 0CE0                             l3747 11E1                             l3739 10F9  
                           l3755 12AF                             l4651 0595                             l4643 0586  
                           l4635 0571                             l4619 0541                             l4627 0552  
                           l4571 03AB                             l3835 117A                             l3827 116B  
                           l3923 1321                             l3915 130A                             l4395 0A78  
                           l4387 0A57                             l3819 165C                             l3851 06BD  
                           l3843 0693                             l4299 09D4                             l4715 096D  
                           l4723 097B                             l4707 0947                             l4811 0145  
                           l4803 012F                             l3765 11BC                             l3909 113B  
                           l3933 153F                             l3941 154C                             l4557 0E3D  
                           l4493 0D51                             l4485 0D1E                             l4477 0CF5  
                           l3749 11E6                             l3757 12D7                             l3781 177B  
                           l3773 173A                             l4653 05A0                             l4645 0587  
                           l4637 0573                             l4629 055D                             l4581 043A  
                           l4573 03B1                             l3829 116F                             l3925 1328  
                           l3917 1310                             l4397 0A8E                             l4389 0A5F  
                           l3853 06CB                             l3845 069E                             l4741 1449  
                           l4725 0980                             l4717 0973                             l4733 0997  
                           l4709 0956                             l4901 024A                             l4821 0169  
                           l4813 0150                             l4805 0135                             l3767 11C2  
                           l3871 1347                             l3791 1284                             l3943 1554  
                           l4495 0D58                             l4479 0D02                             l4487 0D28  
                           l3783 1783                             l3775 1755                             l4655 05B0  
                           l4647 058F                             l4639 057C                             l4583 043B  
                           l4575 0428                             l3927 132D                             l3919 1316  
                           l4399 0A98                             l3863 10CD                             l3855 06CC  
                           l3847 06A2                             l3839 067E                             l4743 144E  
                           l4727 0989                             l4751 11F0                             l4911 027D  
                           l4831 017C                             l4823 016B                             l4815 0157  
                           l4807 013B                             l3873 134D                             l3769 125D  
                           l3793 1285                             l3945 155B                             l3937 1542  
                           l4497 0D62                             l4489 0D37                             l3785 1793  
                           l3777 1763                             l4665 05C8                             l4593 0445  
                           l4585 043C                             l4577 0433                             l3865 16D8  
                           l3953 1236                             l3961 110F                             l3857 06D5  
                           l3849 06AB                             l4745 1453                             l4737 1430  
                           l3881 1479                             l4729 098F                             l4681 0911  
                           l4753 11F2                             l4921 02A4                             l4913 0284  
                           l4905 024E                             l4841 0198                             l4833 0181  
                           l4817 015E                             l4809 0140                             l4825 016F  
                           l4761 006E                             l3867 132F                             l3795 1295  
                           l3947 1561                             l3939 1546                             l3891 14A9  
                           l4499 0D6C                             l3787 179B                             l3779 176B  
                           l4659 05BC                             l4667 05D8                             l4595 0451  
                           l4579 0439                             l4587 043E                             l3955 1237  
                           l3963 1112                             l3971 1145                             l3859 06DB  
                           l4747 1467                             l4739 1444                             l3883 147B  
                           l3875 146A                             l4691 0922                             l4683 0913  
                           l4931 02E3                             l4923 02A8                             l4907 0265  
                           l4851 01C0                             l4843 019C                             l4835 018C  
                           l4827 0175                             l4819 0165                             l4771 008C  
                           l4763 006E                             l4755 0040                             l3869 1337  
                           l3789 117F                             l3797 129B                             l3949 156D  
                           l3893 14AC                             l4597 0469                             l4589 0443  
                           l3957 1245                             l3965 1113                             l3973 114C  
                           l3981 13BC                             l4749 1468                             l3885 1487  
                           l3877 146A                             l4685 0919                             l4693 0925  
                           l4941 0323                             l4933 02F0                             l4925 02AC  
                           l4917 028C                             l4909 026C                             l4861 01E5  
                           l4853 01CB                             l4845 019F                             l4837 0190  
                           l4781 00B8                             l4773 00A2                             l4765 0071  
                           l4757 0044                             l3799 129D                             l3895 14B2  
                           l3991 1213                             l4599 049E                             l3959 124B  
                           l3967 1114                             l3975 114E                             l3983 135E  
                           l3887 1491                             l3879 1472                             l4695 092B  
                           l4687 091E                             l4679 090D                             l4943 0327  
                           l4935 02FB                             l4919 029F                             l4871 01F4  
                           l4863 01EA                             l4855 01D0                             l4847 01A4  
                           l4839 0193                             l4791 00FA                             l4783 00D5  
                           l4775 00A8                             l4767 0076                             l4759 0056  
                           l3993 1217                             l3969 10C1                             l3977 138E  
                           l3985 1362                             l3889 14A0                             l4697 0930  
                           l4689 0920                             l4961 036A                             l4945 0329  
                           l4937 030A                             l4929 02C4                             l4873 0205  
                           l4857 01DE                             l4849 01B5                             l4881 021D  
                           l4785 00DB                             l4793 010C                             l4777 00AA  
                           l4769 0080                             _ADFM 04FF                             l3899 14D1  
                           l3995 1224                             l3979 1391                             l3987 1127  
                           l4699 0931                             l4963 037B                             l4947 032F  
                           l4939 0312                             l4891 0237                             l4883 0223  
                           l4875 0209                             l4859 01E2                             l4795 0112  
                           l4787 00E1                             l4779 00B2                             ?_isr 0070  
                           l3997 122B                             l3989 1211                             l4965 0381  
                           l4949 033E                             l4885 0229                             l4869 01EF  
                           l4797 0117                             l4789 00F6                             l3999 1231  
                           l4959 0357                             l4887 022B                             l4879 020C  
                           l4799 0119                             l4897 023E                             l4889 0231  
                           l4969 0387                             l4899 0244                             _ADON 00F8  
                           STR_1 08AE                             STR_2 089B                             STR_3 0874  
                           STR_4 083E                             STR_5 08A5                             STR_6 07AD  
                           STR_7 084C                             STR_8 0811                             STR_9 08B7  
                           _CREN 00C4                             u4000 142B                             u4001 142A  
                           u4010 115E                             u4011 115D                             u4100 0EF4  
                           u4020 0E53                             u4101 0EF3                             u4021 0E52  
                           u4110 0F2B                             u4030 0E67                             u4111 0F2A  
                           u4031 0E66                             u3320 1120                             u3400 12AD  
                           u4120 0F9C                             u4040 0E7F                             u4200 0A1A  
                           u3321 111F                             u3401 12AC                             u4121 0F9B  
                           u4041 0E7E                             u4201 0A19                             u3330 1126  
                           u3410 110D                             u4050 0E85                             u4130 09A1  
                           u4210 0B78                             u3331 1125                             u3411 110C  
                           u4051 0E84                             u4131 09A0                             u4211 0B77  
                           u3340 11E6                             u3420 116F                             u4300 0ACF  
                           u3500 06DB                             u4060 0EA1                             u4140 09A9  
                           u4220 0B95                             u3341 11E5                             u3421 116E  
                           u4301 0ACE                             u3501 06DA                             u4061 0EA0  
                           u4141 09A8                             u4221 0B94                             u3350 11B7  
                           u3510 135D                             u3430 117A                             u4310 0B6B  
                           u4070 0EA7                             u4150 09B9                             u4230 0B9D  
                           u3351 11B3                             u3511 135C                             u3431 1179  
                           u4311 0B6A                             u4071 0EA6                             u4151 09B8  
                           u5007 0CA7                             u4231 0B9C                             u3600 1561  
                           u4400 0D37                             u4320 0CBE                             u3440 0690  
                           u3520 1479                             u4080 0EBD                             u4160 09BE  
                           u4240 0BAB                             u3601 1560                             u4401 0D36  
                           u4321 0CBD                             u4305 0ACB                             u3441 068F  
                           u3521 1478                             u4081 0EBC                             u5017 0E71  
                           u4161 09BD                             u4241 0BAA                             u3610 156D  
                           u4410 0D46                             u4330 0CC8                             u3530 14A0  
                           u4090 0EE1                             u4170 09CE                             u4250 0BC7  
                           u3611 156C                             u4411 0D45                             u4331 0CC6  
                           u4315 0B67                             u5107 165E                             u3531 149F  
                           u5027 0F04                             u4091 0EE0                             u4171 09CD  
                           u4251 0BC6                             u3364 11BA                             u3540 14D0  
                           u4420 0D58                             u4340 0CC9                             u3700 17AD  
                           u3620 125B                             u3460 06A2                             u4180 09D4  
                           u4260 0BD4                             u3541 14CF                             u4421 0D57  
                           u4405 0D33                             u3701 17AC                             u3621 125A  
                           u5117 166C                             u3461 06A1                             u5037 0F1A  
                           u4181 09D3                             u4261 0BD3                             u4245 0BA7  
                           u3550 14D7                             u4430 0D8C                             u4350 0CD1  
                           u3710 17BC                             u3630 139F                             u4190 09E1  
                           u4270 0C1E                             u3551 14D6                             u4431 0D8B  
                           u4415 0D42                             u4351 0CD0                             u3375 1758  
                           u3711 17BB                             u5127 167A                             u3455 0695  
                           u3535 149C                             u5047 0F3B                             u4095 0EDD  
                           u4191 09E0                             u4271 0C1D                             u3560 14EC  
                           u4440 0DB8                             u4360 0CEC                             u4520 0566  
                           u4280 12F6                             u3800 15E0                             u3480 06BD  
                           u3640 1370                             u4600 091E                             u3561 14EB  
                           u4441 0DB7                             u4361 0CEB                             u3385 1770  
                           u4521 0565                             u5137 0549                             u4505 04D1  
                           u4281 12F5                             u3801 15DF                             u3481 06BC  
                           u5057 0FCD                             u4601 091D                             u4265 0BD0  
                           u3570 153F                             u4450 0DD7                             u4370 0CF3  
                           u3650 1217                             u4530 0571                             u3730 17CC  
                           u3810 15EB                             u4290 0A5F                             u4610 092B  
                           u3571 153E                             u4451 0DD6                             u4371 0CF2  
                           u3651 1216                             u3395 1788                             u5147 05A8  
                           u4531 0570                             u4515 050D                             u3731 17CB  
                           u3811 15EA                             u4291 0A5E                             u3475 06A4  
                           u3635 139A                             u5067 0FFB                             u4611 092A  
                           u4275 0C1A                             _PEIE 005E                             u3580 1554  
                           u4460 0DEA                             u4380 0D02                             u3900 1507  
                           u4540 057C                             u4700 0989                             u4620 0930  
                           u3581 1553                             u5157 0E24                             u4461 0DE9  
                           u4381 0D01                             u3901 1506                             u4541 057B  
                           u3725 17C0                             u5077 162B                             u3485 06B9  
                           u3645 136B                             u4701 0988                             u4621 092F  
                           u3590 155B                             u4390 0D14                             u4550 0586  
                           u4470 03B1                             u3750 17DD                             u3830 15FB  
                           u4710 098F                             u4630 093E                             u5167 127D  
                           u3591 155A                             u4391 0D13                             u4551 0585  
                           u4471 03B0                             u3751 17DC                             u3831 15FA  
                           u5087 163A                             u3495 06CD                             u4711 098E  
                           u4631 093D                             u3920 1518                             u3680 1231  
                           u4560 058D                             u4480 0443                             u3840 1605  
                           u4640 0947                             u4720 1210                             u4800 0135  
                           u5177 113F                             u4385 0CFE                             u3921 1517  
                           u3681 1230                             u3665 121E                             u4561 058B  
                           u4481 0442                             u3745 17CD                             u3841 1604  
                           u3825 15EF                             u5097 1648                             u4641 0946  
                           u4721 120F                             u4801 0134                             u4570 058E  
                           u3770 17F1                             u3690 17A2                             u4650 0956  
                           u4810 013B                             u4730 005E                             u5187 11BF  
                           u3915 1508                             u3675 1225                             u3771 17F0  
                           u3755 17D9                             u3691 17A1                             u4651 0955  
                           u4635 093A                             u4811 013A                             u3940 152C  
                           u4580 0594                             u3780 17F6                             u3860 1618  
                           u4660 0964                             u4900 024A                             u4820 0140  
                           u4740 00A8                             _RCEN 048B                             _RCIF 0065  
                           u5197 11C9                             u3941 152B                             u3925 1514  
                           u4581 0593                             u3781 17F5                             u3765 17E5  
                           u3861 1617                             u3845 1601                             u4661 0963  
                           u4901 0249                             u4821 013F                             u4741 00A7  
                           u3950 13FE                             u3870 161D                             u3790 15D5  
                           u4670 096D                             u4590 0919                             u4910 02FB  
                           u4830 0175                             u4750 00B8                             u3935 1520  
                           u3951 13FD                             u4495 0495                             u3871 161C  
                           u3855 160C                             u3791 15D4                             u4671 096C  
                           u4655 0952                             u4591 0918                             u4911 02FA  
                           u4831 0174                             u4751 00B7                             u3880 14F7  
                           u4680 0973                             u4920 0312                             u4840 017B  
                           u4760 00DB                             u3881 14F6                             u4681 0972  
                           u4921 0311                             u4841 017A                             u4761 00DA  
                           u3970 140E                             u4690 0980                             u4930 037B  
                           u4850 0223                             u4770 00E1                             u3971 140D  
                           u4691 097F                             u4931 037A                             u4851 0222  
                           u4771 00E0                             u3980 1418                             u4860 0229  
                           u4780 0112                             u3981 1417                             u3965 1402  
                           u4861 0228                             u4781 0111                             u4870 0237  
                           u4790 0117                             u3895 14FB                             u4871 0236  
                           u4791 0116                             u4880 023D                             u3985 1414  
                           u4881 023C                             u4890 0244                             u3995 141F  
                           u4891 0243                             u4947 0162                             u4957 01D8  
                           u4967 0270                             u4977 0288                             u4987 0303  
                           u4997 0337                             _SPEN 00C7                             _TXIF 0064  
                           _R_nW 04A2                             _main 0040                             _menu 00CF  
                           _time 00B8                             btemp 007E                             _puts 1236  
                           start 000C            clear_log@reset_memory 0079                ___bmul@multiplier 0074  
            view_log@reset_index 0025                   clcd_write@byte 0075                   clcd_write@mode 0072  
                  _i2c_rep_start 10F9                            ??_isr 0070                     ?_init_ds1307 0070  
                          ?_main 0070                     ?_read_ds1307 0070                            _ACKEN 048C  
                          _ACKDT 048D                   ??_display_time 007A                  __end_of___awdiv 1800  
                          STR_10 08CE                            STR_11 07F1                            STR_12 0821  
                          STR_20 0757                            STR_21 08C0                            STR_13 079C  
                          STR_14 0746                            STR_30 0745                            STR_22 0700  
                          STR_23 0751                            STR_31 07BE                            STR_15 077A  
                          STR_40 0754                            STR_24 0753                            STR_16 0746  
                          STR_32 0830                            STR_25 074E                            STR_17 0746  
                          STR_33 07E0                            STR_41 08F4                            STR_26 0752  
                          STR_34 08C7                            STR_18 0867                            STR_50 0769  
                          STR_42 08EB                            STR_51 08E8                            STR_19 088E  
                          STR_35 0801                            STR_27 078B                            STR_43 08D9  
                          STR_36 085A                            STR_28 07CF                            STR_52 0733  
                          STR_44 08DC                  __end_of___awmod 1627                            STR_37 0881  
                          STR_29 0745                            STR_53 0720                            STR_45 08DF  
                          STR_38 0754                            STR_54 08F7                            STR_46 08E2  
                          STR_39 0754                            STR_55 08E5                            STR_47 08D4  
                          STR_56 08F1                            STR_48 08EE                            STR_49 079C  
                          ?_puts 0073                  __end_of___lldiv 06E4                      i2c_read@ack 0072  
                ___awdiv@divisor 0072                  __end_of___lwdiv 1531                  __end_of___lwmod 1430  
                          i1l382 13F1                     ?_init_config 0070                  ___awdiv@counter 0076  
                          _RCREG 001A                            _SPBRG 0099                            _PORTB 0006  
                          _PORTD 0008                            _SSPM3 00A3                            _TRISB 0086  
                          _TRISD 0088                            _SSPEN 00A5                            _TXREG 0019  
                   ?_init_timer2 0070                     main@menu_pos 019C                            _nDONE 00FA  
           __end_of_clear_screen 1145                            _login 0E4A                  _change_password 0CAC  
                          pclath 000A             login_menu@reset_flag 0025   ext_eeprom_str_write@memory_loc 0079  
                          puts@s 0073                  __end_of_putchar 110F                            status 0003  
                          wtemp0 007E                  __end_of_strncmp 157C                  __end_of_strncpy 14ED  
               init_ds1307@dummy 0076                  __initialization 000F                   ?_i2c_rep_start 0070  
                   __end_of_main 03A8                     __end_of_puts 125C                   login@npassword 00BF  
               __end_of_i2c_read 11F0                 __end_of_i2c_stop 10EE                    ?_download_log 0070  
                         ??_main 0039                           ??_puts 0075                   login@spassword 0029  
   ext_eeprom_read@received_data 0075                           _ADRESH 001E                           ?_login 0025  
                         _ADRESL 009E                 ___awdiv@dividend 0074                     i2c_read@data 0073  
                         i1l3461 13D7                           i1l3463 13D9                           i1l3471 13EF  
                         i1l3465 13E1                           i1l3457 13C0                           i1l3467 13E8  
                         i1l3459 13C6                           i1l3469 13ED                           u310_20 13ED  
                         u310_21 13EC                           u307_20 13C6                           u307_21 13C5  
                         u308_20 13D7                           u308_21 13D6                           u309_20 13E1  
                         u309_21 13E0                     _write_ds1307 1191                           _TMR2IE 0461  
                         _TMR2IF 0061                           _TMR2ON 0092                           _SSPADD 0093  
                         _TRISE1 0449                           _TRISE2 044A                           _SSPBUF 0013  
                  login_menu@key 0028      __end_of_init_digital_keypad 10C7                 __end_of_get_time 179D  
                         ___bmul 1169          _init_display_controller 1627                           ___wmul 1211  
                      ??___awdiv 0076                        ??___awmod 0076                        ??___lldiv 0020  
                      ??___lwdiv 007A                        ??___lwmod 0076                 __end_of_init_i2c 13C0  
               __end_of_init_adc 10D4                 __end_of_read_adc 1169                   ??_download_log 0076  
               ___awdiv@quotient 0078                  ___awmod@divisor 0072                    view_log@index 004C  
                ___awmod@counter 0076                           main@gr 01A0                change_time@buffer 002A  
                         _strcpy 11F0                change_time@t_done 0051                           login@i 0056  
                         login@j 002E          __end_of_change_password 0E4A                           saved_w 007E  
               __end_of_view_log 0CAC                        ??_putchar 0072                        ??_strncmp 0076  
                      ??_strncpy 0077          __end_of__initialization 003C             __end_of_display_time 173A  
                ??_i2c_rep_start 0072              ___bmul@multiplicand 0072                   __pcstackCOMMON 0070  
                   __pidataBANK0 10C7                     __pidataBANK1 06E4                    __end_of_login 1000  
                login@reset_flag 0025                __end_of_i2c_start 10E5                __end_of_i2c_write 10F9  
               _ext_eeprom_write 125C     change_password@toggle_cursor 0054                _i2c_wait_for_idle 111A  
                change_time@wait 0053                          ??_login 0026               ?_i2c_wait_for_idle 0070  
                     __pbssBANK0 003D                       __pbssBANK1 00A0                        ?_i2c_read 0070  
                      ?_i2c_stop 0070        ??_init_display_controller 0076                       _clcd_print 132F  
            ??_i2c_wait_for_idle 0072                       _clcd_putch 117C                       _clcd_write 11AF  
                     __pmaintext 0040                  read_ds1307@addr 0074                    _log_car_event 167E  
                read_ds1307@data 0075                     _clear_screen 1134                          ?___bmul 0072  
                        ?___wmul 0072                       __pintentry 0004                          _ACKSTAT 048E  
                        ?_strcpy 0072                          _T2CKPS0 0090                          _T2CKPS1 0091  
    __end_of_read_digital_keypad 0999                 ?_change_password 0025        __end_of_i2c_wait_for_idle 1127  
                   init_i2c@baud 0026                          _SSPCON2 0091                        ?_get_time 0070  
                     __stringtab 1000                       ??_i2c_read 0072                       ??_i2c_stop 0072  
                      ?_init_i2c 0026             __end_of_download_log 0B6C                        ?_init_adc 0070  
read_digital_keypad@long_pressed 0046                        ?_read_adc 0072                __end_of_clear_log 1304  
                 ?_log_car_event 0021                ??_ext_eeprom_read 0074               change_password@key 0029  
                        ___awdiv 179D                          ___awmod 15D0                        ?_view_log 0025  
                        ___lldiv 067E                          ___lwdiv 14ED                          ___lwmod 13F8  
               main@control_flag 01A3                          __ptext1 0B6C                          __ptext2 11F0  
                        __ptext3 090D                          __ptext4 1157                          __ptext5 0999  
                        __ptext6 0E4A                          __ptext7 167E                          __ptext8 146A  
                        __ptext9 1430  __end_of_init_display_controller 167E                __end_of_init_clcd 111A  
         read_digital_keypad@key 0072                __end_of_init_uart 138E                 ___awmod@dividend 0074  
                  ??_change_time 0026                   main@reset_flag 01A1                __end_of_log_event 14A9  
                     _login_menu 0999           display_dashboard@event 0025           display_dashboard@speed 0026  
                        _putchar 1104                          main@key 01A4                          clrloop0 10D5  
                     ??_get_time 0076                          _strncmp 1531                          _strncpy 14A9  
           end_of_initialization 003C           change_password@new_pwd 00AF                       ??_init_i2c 002A  
                     ??_init_adc 0072                       ??_read_adc 0074           change_password@pwd_pos 004A  
                    ?_clcd_print 0076                      ?_clcd_putch 0023                  ___lldiv@divisor 0072  
                    ?_clcd_write 0072                  ___lldiv@counter 0025                       ??_view_log 0026  
                   __pstringtext 0700                          strcpy@d 0077                     _display_time 16D8  
                  i2c_write@data 0072     __end_of_ext_eeprom_str_write 12AE                    clcd_print@str 0076  
            __end_of_change_time 067E        ext_eeprom_read@memory_loc 0074                  ??_log_car_event 0024  
       __end_of_ext_eeprom_write 1283                   __end_of___bmul 117C                   __end_of___wmul 1236  
     ext_eeprom_write@memory_loc 0076                      view_log@add 0035                      view_log@key 0036  
                    view_log@log 0028                   __end_of_strcpy 1211              start_initialization 000F  
                    ?_login_menu 0025                        _i2c_start 10DC                      __end_of_isr 13F8  
                      _i2c_write 10EE         ext_eeprom_str_write@data 0077                      putchar@data 0072  
          __end_of_i2c_rep_start 1104                         ??___bmul 0073                         ??___wmul 0076  
                     init_fetch0 08FA                 change_time@blink 0052                    ??_init_ds1307 0076  
                    __pdataBANK0 0057                      __pdataBANK1 00C3       read_digital_keypad@pre_key 0050  
                  ??_read_ds1307 0074                     _download_log 0A50                         ??_strcpy 0075  
                  ??_init_config 007A            change_time@reset_time 0025                    ??_init_timer2 0072  
                    __pbssCOMMON 007A                        ___latbits 0002                    __pcstackBANK0 0020  
                  __pcstackBANK3 0190                      _change_time 03A8                       ?_i2c_start 0070  
                     ?_i2c_write 0070                  _ext_eeprom_read 1304                   change_time@key 0029  
               ___lwdiv@dividend 0078                        _clear_log 12D9             _ext_eeprom_str_write 1283  
                       ?___awdiv 0072                         ?___awmod 0072                _display_dashboard 157C  
                       ?___lldiv 0072                         ?___lwdiv 0076                        _clock_reg 0043  
                       ?___lwmod 0072               ?_display_dashboard 0025                        __pstrings 1000  
            __end_of_init_ds1307 1157              read_adc@adc_reg_val 0074              ??_display_dashboard 0027  
            __end_of_read_ds1307 12D9                 ___lwdiv@quotient 0021                         ?_putchar 0070  
                      _init_clcd 110F              __end_of_init_config 146A                        _init_uart 135E  
                       ?_strncmp 0072                         ?_strncpy 0072                        _log_event 146A  
                  ?_write_ds1307 0073              __end_of_init_timer2 1134         ?_init_display_controller 0070  
              interrupt_function 0004                   ___wmul@product 0076                        clear_ram0 10D4  
                   ??_clcd_print 0079                     ??_clcd_putch 007A                     ??_clcd_write 0073  
                     ?_clear_log 0070        __end_of_display_dashboard 15D0            ?_ext_eeprom_str_write 0077  
                      main@F1223 00D9                        main@F1225 00C3                    download_log@i 0030  
           change_time@blink_pos 0048                      __stringbase 1012                ___wmul@multiplier 0072  
        __end_of_ext_eeprom_read 132F                        main@event 019D       change_password@blink_delay 00A2  
                      main@speed 01A2                 view_log@position 0033                      ??_i2c_start 0072  
             __end_of_clcd_print 135E                      ??_i2c_write 0072               __end_of_clcd_putch 1191  
             __end_of_clcd_write 11CF                       ?_init_clcd 0070                       ?_init_uart 0026  
                 ??_write_ds1307 0074                       ?_log_event 0070              _init_digital_keypad 10C1  
                       _i2c_read 11CF                         _i2c_stop 10E5                ?_ext_eeprom_write 0073  
             ??_ext_eeprom_write 0074         change_password@reset_pwd 0025             ?_init_digital_keypad 0070  
                    _init_ds1307 1145                      _event_count 0057               __end_of__stringtab 1012  
                    _read_ds1307 12AE                      _init_config 1430                     ??_login_menu 0026  
                    _init_timer2 1127                  ___lwdiv@divisor 0076                  ___lwdiv@counter 0020  
                       __ptext10 135E                         __ptext11 1127                         __ptext20 1236  
                       __ptext12 138E                         __ptext21 1104                         __ptext13 067E  
                       __ptext30 1191                         __ptext22 1304                         __ptext14 1145  
                       __ptext31 173A                         __ptext23 1169                         __ptext15 10C1  
                       __ptext40 1531                         __ptext32 12AE                         __ptext24 157C  
                       __ptext16 110F                         __ptext41 1283                         __ptext33 10F9  
                       __ptext25 16D8                         __ptext17 1627                         __ptext50 11AF  
                       __ptext42 125C                         __ptext34 11CF                         __ptext26 15D0  
                       __ptext18 10CD                         __ptext51 13C0                         __ptext43 10EE  
                       __ptext35 1211                         __ptext27 179D                         __ptext19 0A50  
                       __ptext44 10E5                         __ptext36 13F8                         __ptext28 12D9  
                       __ptext45 10DC                         __ptext37 14ED                         __ptext29 03A8  
                       __ptext46 111A                         __ptext38 0CAC                         __ptext47 1134  
                       __ptext39 14A9                         __ptext48 117C                         __ptext49 132F  
                       _get_time 173A                login@attempts_rem 005B                       strcpy@dest 0072  
                       _init_i2c 138E                         _init_adc 10CD                         _read_adc 1157  
        read_digital_keypad@once 007A           ??_ext_eeprom_str_write 0079            __end_of_log_car_event 16D8  
                    ??_clear_log 0079                ??_change_password 0026                    ?_clear_screen 0070  
             __end_of_login_menu 0A50                         _view_log 0B6C            ??_init_digital_keypad 0072  
                       main@gear 0190                        view_log@i 0037                 ?_ext_eeprom_read 0070  
                       isr@count 00A0              change_time@new_time 003D                     ?_change_time 0025  
                       init_ram0 08FE                      ??_init_clcd 0078                      ??_init_uart 002A  
                       login@key 002D                      ??_log_event 007A                         intlevel1 0000  
                  init_uart@baud 0026             ext_eeprom_write@data 0073                 ___lwmod@dividend 0074  
               ___lldiv@dividend 0076                        strcpy@src 0073                        stringcode 100A  
                 ??_clear_screen 0076                        strncpy@cp 0079             __end_of_write_ds1307 11AF  
            _read_digital_keypad 090D                 ___lldiv@quotient 0021                  ___lwmod@divisor 0072  
           download_log@position 002C                  ___lwmod@counter 0076                         strncmp@l 0072  
                       strncmp@n 0074                         strncmp@r 0073                         stringtab 1000  
                       strncpy@d 0072                         strncpy@n 0075                         strncpy@s 0073  
                    _return_time 005C             ?_read_digital_keypad 0070                 write_ds1307@addr 0074  
               write_ds1307@data 0073                download_log@index 002E                  download_log@add 002B  
                download_log@log 0020  
